(dp0
S'K06K11'
p1
S'~?@A~~~~~~~~~o?O@G@a?wON@@{AFwANw@N{?V~?B~{?G?G?O@G?OBC?GB`?A@wG?O^?_@B{@?ANw@?A^w?_@^{?G?^~_@?A?A?C?G?c?G?OBC?G?OFA?C?GF__@?ABwC?G?O~?O?_@F{?_@?A^w?_@?A~w?O?_@~}?C?G?O?O?_@?A?H?A?C?G@a?C?G?OFA?C?G?ON@?A?C?GN_O?_@?AFwA?C?G?P~?G?O?_@N{?O?_@?A~w?O?_@?B~{?G?O?_@?@?A?C?G?O@G?O?_@?A?W_@?A?C?GB`?A?C?G?ON@?A?C?G?O^?_@?A?C?G^_G?O?_@?ANw@?A?C?G?R~?C?G?O?_@^{?G?O?_@?B~w'
p2
sS'K06K10'
p3
S'{~~~~~~~{?G@GBCB`@wG^?b{@Nw@^w?~}?G?O@?H?C@a?GFA?GN@?CN_O@FwA?H~?G?n{?O@~{?O@?A?G?_C_A?GBC?O@?wO@?CF__A?G^?_A?G~?O@?C~_C?O@^w?_A?N~_A?G?_@?C?O@?H?C?O@?W_A?G?_[G?_A?GN@?C?O@BwC?O@?C^_G?_A?H~?G?_A?J~?C?O@?F~o@?C?O@?A?G?_A?G@G?_A?G?_KO@?C?O@?wO@?C?O@@wG?_A?G?`{A?G?_A?G~?O@?C?O@Nw@?C?O@?D~_A?G?_A?N~'
p4
sS'K06K13'
p5
S'~?@M~~~~~~~~~~~~~_?G?H?BC?[G@wGBwCB{@@~?G^w?b~_@N~?@^~??~~o?G?A?@?@G?C?KO?G?wO?G@wG?C@{A?@?~?O?GNw@??`~_A?@F~?A?@N~?@??n~_?O?N~{?A?@??O?G?C?C_?O?G?W_?O?G?wO?G?C?{C?A?@?^?_?O?GFwA?@??_~_C?A?@B~?C?A?@F~?A?@??f~_?_?O?J~w?C?A?@~~_?O?G?C?@??_?O?G?H??_?O?G?W_?O?G?C?[G?C?A?@?N@??_?O?GBwC?A?@??_^_G?C?A?@@~?G?C?A?@B~?C?A?@??b~_@??_?O?H~w?G?C?A?@^~??_?O?G?F~}?@??_?O?G?A?@??_?O?G?H??_?O?G?C?KO?G?C?A?@?FA?@??_?O?G@wG?C?A?@??_N_O?G?C?A?@?~?O?G?C?A?@@~?G?C?A?@??`~_A?@??_?O?G~w?O?G?C?A?@N~?@??_?O?G?D~{?A?@??_?O?N~w'
p6
sS'K06K12'
p7
S'~?@G~~~~~~~~~~~_?O?c?W_FA?{CBwCFwAF{?b~?C~w?V~_?~~_?_?O?O?c?C?W_?_FA?A?{C?CBwC?CFwA?AF{?_?b~?C?C~w?O?V~_?_?~~_?_?_?O?O?O?c?C?C?W_?_?_FA?A?A?{C?C?CBwC?C?CFwA?A?AF{?_?_?b~?C?C?C~w?O?O?V~_?_?_?~~_?_?_?_?O?O?O?O?c?C?C?C?W_?_?_?_FA?A?A?A?{C?C?C?CBwC?C?C?CFwA?A?A?AF{?_?_?_?b~?C?C?C?C~w?O?O?O?V~_?_?_?_?~~_?_?_?_?_?O?O?O?O?O?c?C?C?C?C?W_?_?_?_?_FA?A?A?A?A?{C?C?C?C?CBwC?C?C?C?CFwA?A?A?A?AF{?_?_?_?_?b~?C?C?C?C?C~w?O?O?O?O?V~_?_?_?_?_?~~'
p8
sS'K06K15'
p9
S'~?@Y~~~~~~~~~~~~~~~~~{??O?C_?W_?wO?{C?^?_FwA?~_CB~?CF~?AF~_?b~w?C~~??V~{??~~{??_?A??O?C_?C?BC??_?wO?A?F__?C?^?_?C?~?O?A?~_C??_^w?_?CF~?A??O~{?C??b~w?C??f~w?A??V~{??_?F~~_?C??_?A??O?A??c??_?C?BC??_?C?FA??O?A?F__?C??_BwC??_?C?~?O?A??OF{?_?C??_^w?_?C??_~w?O?A??O~{?C??_?C^~??_?C??f~w?A??O?A~~_?C??_?F~~_?C??_?C??O?A??O?A??c??_?C??_?W_?C??_?C?FA??O?A??O?{C??_?C??_BwC??_?C??_FwA??O?A??OF{?_?C??_?CB~?C??_?C??_~w?O?A??O?AF~_?_?C??_?C^~??_?C??_?C~~??O?A??O?A~~_?C??_?C??~~{??_?C??_?C??O?A??O?A??O?C_?C??_?C??_?W_?C??_?C??_?wO?A??O?A??O?{C??_?C??_?C?^?_?C??_?C??_FwA??O?A??O?A?~_C??_?C??_?CB~?C??_?C??_?CF~?A??O?A??O?AF~_?_?C??_?C??b~w?C??_?C??_?C~~??O?A??O?A??V~{??_?C??_?C??~~w'
p10
sS'K06K14'
p11
S'~?@S~~~~~~~~~~~~~~~o?A?@G?KO?wO@wG@{A?~?ONw@@~_AF~?AN~?@N~_?V~w?B~~_?G?@??O?H??O?W_?G?[G?A?N@??OBwC?@?^_G?A@~?G?AB~?C?@B~_@??P~w?G?A^~??_?J~{?@??^~{?@??O?A??_?G?C_?G?A?BC?@??O?wO?C?@?F__?G?A?^?_?G?A?~?O?C?@?~_C?@??O^w?_?G?AF~?A??_?G~{?C?@??R~w?C?@??V~w?A??_?N~}??_?G?A??O?C?@??O?H??O?C?@?@a??_?G?A?FA??_?G?A?N@??O?C?@?N_O?C?@??OFwA??_?G?A@~?G?A??_?GN{?O?C?@??O~w?O?C?@??P~w?G?A??_?H~{?A??_?G?A~~??O?C?@??^~{?@??O?C?@??G?A??_?G?A?@G?A??_?G?A?BC?@??O?C?@?B`??O?C?@??O@wG?A??_?G?A?^?_?G?A??_?GB{@??O?C?@??ONw@??O?C?@??O^w?_?G?A??_?G^{?G?A??_?G?AN~?@??O?C?@??R~w?C?@??O?C?@^~_?G?A??_?G?B~~'
p12
sS'K06K16'
p13
S'~?@_~~~~~~~~~~~~~~~~~~~~_?@??H??W_?[G?N@?BwC?^_G@~?GB~?CB~_@@~w?G^~??b~{?@N~w?@^~w??~~}??G??O?@??H??C?@a??G?FA??G?N@??C?N_O?@?FwA??G@~?G??_N{?O?@?~w?O?@@~w?G??`~{?A??G~~??O?@N~w?@??D~~_?A??N~~_?A??G??O?@??C??c??O?@??W_?A??G?FA??G??_?{C??O?@?BwC??O?@?FwA??G??_F{?_?A??GB~?C??O?@?~w?O?@??CF~_?_?A??G^~??_?A??G~~??O?@??C~~_?C??O?@^~w??_?A??N~~_?A??G??_?@??C??O?@??H??C??O?@??W_?A??G??_?[G??_?A??G?N@??C??O?@?BwC??O?@??C?^_G??_?A??G@~?G??_?A??GB~?C??O?@??CB~_@??C??O?@@~w?G??_?A??G^~??_?A??G??b~{?@??C??O?@N~w?@??C??O?@^~w??_?A??G??~~}??G??_?A??G??O?@??C??O?@??H??C??O?@??C?@a??G??_?A??G?FA??G??_?A??G?N@??C??O?@??C?N_O?@??C??O?@?FwA??G??_?A??G@~?G??_?A??G??_N{?O?@??C??O?@?~w?O?@??C??O?@@~w?G??_?A??G??`~{?A??G??_?A??G~~??O?@??C??O?@N~w?@??C??O?@??D~~_?A??G??_?A??N~~'
p14
sS'Q3K03K03'
p15
S'~?@Gr`HOm?OH@ABAG@C_POAJ_G@?OH?OO_GKGAG@?PGC@D?GAJ_???O???c???O_??BA???_C??@GC??@OA???k?_?A??C??OG?O?@@??_?AB??_?AG??O?@C_?C??PO??_?AJ??A?_G???C@?OG??C@?OO??A?_GK???_GAG???C@?PG???OC@D????_GAJ_???_???O???O???c???C???O_???_??BA???A???_C???C??@GC???C??@OA???A???k?_???_?A??C???C??OG?O???O?@@??_???_?AB??_???_?AG??O???O?@C_?C???C??PO??_???_?AJ??A???A?_G???C???C@?OG??C???C@?OO??A???A?_GK???_???_GAG???C???C@?PG???O???OC@D????_???_GAJ'
p16
sS'C14Pow04'
p17
S'M~|xw{N@{FwNwN{F_'
p18
sS'Q3K03K04'
p19
S'~?@_r`HOm?OH@ABAG@C_POAJ_G@?OH?OO_GKGAG@?PGC@D?GAJ_GA?OC@?c@?OO_GABA?_G_C@?PGC@?POA?_Gm?????O????H????@A????BA????G@????C_O???@OA????J?G???G??O???OG?O???OO?G???GK?A???AG??O???PG?@???@D??A???AJ??A??GA???@??C@?_??O?@?OO??A??GAB???G??_G_???O?@?PG???O?@?PO???G??_Gk???A?_GA?????OC@?OG???@?OC@@????A?_GAB????A?_GAG????@?OC@C_????OC@?PO????A?_GAJ_????G????@?????O????H?????O????O_????G????KG????A????G@?????O???@GC????@????D?G????A????J?G????A???A??C????@???@?_@?????O???OO?G????A???AB??_????G???G_?@?????O???PG?@?????O???PO??_????G???Gk??G????A??GA???@?????O?@?OG??C????@??C@@???G????A??GAB???G????A??GAG???C????@??C@C_??@?????O?@?PO???G????A??GAJ????_????GA?_G????@?????OC@?OG???@?????OC@?OO????_????GA?_GK????G????A?_GAG????@?????OC@?PG????C????@?OC@D?????G????A?_GAJ'
p20
sS'K04K05K05'
p21
S'~?@c~}AHKVB{GGPGRCJ`B{GOO`C`AW`AwO`}CGOO`AHACHaCGVACG^_???G???H???BC???[G??@wG??A?C??@C@???R?G??Aw?_??N_@??GO?@??GP??_?CH_?G?@Aw?@??G^??C?O`???G?`AG??G?`AW??C?O`[??@?CG^???GO`A????`ACG_??@ACGR???@ACGV????`ACNo???G???A???@???@G???C???KO???G???wO???G??@wG???C??@?A???@???P?O???G??AW@????_??J_A???@???^?A???@??GO?@????_?CG_?O???G?@AW?A???@??GV??G???C??`{??O???G?`A???O???G?`AG??G???C?O`K??A???@?CGV???O???G?`Bw??@????`ACG???A???@ACGP???A???@ACGR???@????`ACJ_???O???GO`B{???A???@????O???G???C???C_???O???G???W_???O???G???wO???G???C???{C???A???@???O?_???O???G??AGA???@????_??H_C???A???@???V?C???A???@???^?A???@????_?CG??_???O???G?@AG?C???A???@??GR??O???G???C??`[??_???O???G?@Bw??_???O???G?`A???O???G???C?O`C??C???A???@?CGR???_???O???G?`Aw??A???@????_ACN_??C???A???@ACGO???C???A???@ACGP???A???@????`ACH_???_???O???GO`Aw???C???A???@ACG^'
p22
sS'DenBip19'
p23
S'e????????????????????????????B_v|DlmlRsfF\\cFNx?y\\F_va~?RZkODWNk?ulh??vsk?D^_k?@uFw?@unE??T}c_?FJbo??X~No??vlR_??nIf_???'
p24
sS'C65Pow16'
p25
S'~?@@~~~~~~~~~~~~~~~~~~~~~~|~~x~~w~~{N~~@~~wF~~_N~~?N~~?F~~_@~~w?N~~??~~{?@~~w?@~~w??~~{??N~~??@~~w??F~~_??N~~???N~~???F~~_??@~~w???N~~????~~{???@~~w???@~~w????~~{????N~~????@~~w????F~~_????N~~?????N~~_????F~~w????@~~~?????N~~{?????~~~w????@~~~w????@~~~{?????~~~~?????N~~~w????@~~~~_????F~~~~?????N~~~~?????N~~~~_????F~~~~w????@~~~~~?????N~~~~{?????~~{'
p26
sS'DenBip18'
p27
S'c?????????????????????????FZ{^dqQ^foW}iDkTgU|__]z]?om]?PP|_Ahuo?LMm?B|Vo?DYmG?EyzW?BkBk??Ufd??DFhg??H]F_??'
p28
sS'C55Pow08'
p29
S'v~~~~~~^x~b~B~@~_^wB~?N{?^w?^w?N{?B~??^w?@~_?B~??B~??@~_??^w??B~???N{???^w???^w???N{???B~????^w???@~_???B~????B~????@~_????^w????B~?????N{?????^w?????^w?????N{?????B~??????^w?????@~o?????B~o?????B~w?????@~}??????^~o?????B~~??????N~}??????^~}??????^w'
p30
sS'C51Pow08'
p31
S'r~~~~~~^x~b~B~@~_^wB~?N{?^w?^w?N{?B~??^w?@~_?B~??B~??@~_??^w??B~???N{???^w???^w???N{???B~????^w???@~_???B~????B~????@~_????^w????B~?????N{?????^w?????^{?????N~?????B~w?????^~_????@~~?????B~~?????B~~_????@~~w?????^w'
p32
sS'DenBip50'
p33
S'~?@c????????????????????????????????????????????????????????????????????????????????????????????????????????????????????????????????????????????????????????????????????????????????????????????????????????????QveUtG}auj_t`{bQ}NT`R^fh?rV@s]OC||FKgYFHtLyB~utLO{Vi?F^~KF{[~?yrQql{HEO@l]E}}_Ec?WIdnXk~Ag?zkjIZ@yy_?PK`Xf{vMO?TJZvHPNQw?BdRFnlV]_??Q|y[XWbl??BXyjcel^Y??DdTUQbqVM??ENy}rQh@A??BWAm~_Vup???VHNm[bw|O??FGzuZscXG????Li@^|~]G???ZnhZaWTq_???iq[f?rXz_???JNjQmhWLO????L{[h{kpM????]pWzPrFB_????oUVxuX~H????C\\Tg|R{`Q????EWnhYPGxu????@yvnSFbw[?????nIs\\P}CBo????D^Z_K~reM?????AMRkP~Kn_?????fRVBu{cxo?????c}HukeGto?????Hhd^XYj}_?????ButRaxX\\???????ftC`|]yf_?????@^A|M`jMq??????DwcnAf~][??????@Jv[kwc{K??????Aa?Vqxv^K???????~kUh[d?ZO??????@P^XVXJPq???????]cI@~dy}G???????spxV}FL~????????LI~L_x^Z_???????LW]OQZVnW???????EiLlk|S_[????????'
p34
sS'K03K03K03'
p35
S'Z{S{aSf_A?cBCCAA__wCc?QS?c{?_A?OC_CBC?__OAA__CF?_Cc?OAQ_C?cw'
p36
sS'LemQ4'
p37
S'~?A?r`HOm?OH@ABAG@C_POAJ_?@??H??O_?KG?G@?@GC?D?G?J?GA??C@?_@?OO?GAB??_G_?@?PG?@?PO??_Gm?????O????H????@A????BA????G@????C_O???@OA????J?G???G??O???OG?O???OO?G???GK?A???AG??O???PG?@???@D??A???AJ??A???????@?????_??O????O??A????B???G????_???O???@G???O???@O???G????k???A???A?????O???OG???@???@@????A???AB????A???AG????@???@C_????O???PO????A???AJ?????G??_???????O?@??G?????O?@??O?????G??_?K?????A??G?G??????O?@?@G?????@??C?D??????A??G?J??????A??GA???????@??C@?_??????O?@?OO??????A??GAB???????G??_G_???????O?@?PG???????O?@?PO???????G??_Gk?????_?A??????????C??O????G?????O?@????@??????_?A????B??????_?A????G??????O?@????C_?????C??O???@O??????_?A????J??????A??G???G???????C??O???OG??????C??O???OO??????A??G???GK???????_?A???AG???????C??O???PG???????O?@???@D????????_?A???AJ?????G??_????????????C??O???????_????@??C???????O?????G??_??????B??????_?A???????_?????@??C??????@G?????@??C??????@O??????_?A???????k??????G??_?????A???????@??C??????OG??????C??O?????@@???????G??_?????AB???????G??_?????AG???????C??O?????@C_??????@??C??????PO???????G??_?????AJ????????_?A??G??_?????????@??C??O?@??G???????@??C??O?@??O????????_?A??G??_?K????????G??_?A??G?G????????@??C??O?@?@G????????C??O?@??C?D?????????G??_?A??G?J?????????G??_?A??GA??????????C??O?@??C@?_????????@??C??O?@?OO?????????G??_?A??GAB??????????_?A??G??_G_?????????@??C??O?@?PG?????????@??C??O?@?PO??????????_?A??G??_Gk'
p38
sS'LemQ2'
p39
S'_r`HOm?OH@ABA?@?_OOAB?G_?PG?PO?Gk?a??COG?P@??aB?G_??CO?_@C?O?G_B??aG_?@CPG?@CPO??aGk'
p40
sS'LemQ3'
p41
S'~?@?r`HOm?OH@ABAG@C_POAJ_?@??H??O_?KG?G@?@GC?D?G?J?G???C??_@??O?G?B??_?_?@?@G?@?@O??_?k??GA???@?OG??C@@???GAB???GAG???C@C_??@?PO???GAJ??A?_????C@??G??C@??O??A?_?K???_G?G???C@?@G???OC?D????_G?J??A?_?????@?O???_??OC???O??A?_??B???GA???_???OC??@G???OC??@O???GA???k???A?_GA?????OC@?OG???@?OC@@????A?_GAB????A?_GAG????@?OC@C_????OC@?PO????A?_GAJ'
p42
sS'K04K17'
p43
S'~?@C~~~~~~~~~~~~~~~~~~~~~~}??A??H??KO?FA?@wG?N_O?~?O@~?G@~_A?~w?ON~?@@~{?AF~w?AN~w?@N~{??V~~??B~~{??G??G??O?@G??O?BC??G?B`??A?@wG??O?^?_?@?B{@??A?Nw@??A?^w?_?@?^{?G??ON~?@??AB~w?C??G^~_?G??P~~??G??R~~??C??J~~_?@??B~~{??G??O??O??_?@??C_?@??A??W_?@??A??wO??_?@??{C??G??O?^?_?@??A?FwA??C??G?~_C??G??OB~?C??G??OF~?A??C??GF~_?_?@??AB~w?C??G??O~~??O??_?@F~{??_?@??A^~w??_?@??A~~w??O??_?@~~{'
p44
sS'K04K16'
p45
S'~?@?~~~~~~~~~~~~~~~~~~~~_?@??H??W_?[G?N@?BwC?^_G@~?GB~?CB~_@@~w?G^~??b~{?@N~w?@^~w??~~}??G??O?@??H??C?@a??G?FA??G?N@??C?N_O?@?FwA??G@~?G??_N{?O?@?~w?O?@@~w?G??`~{?A??G~~??O?@N~w?@??D~~_?A??N~~_?A??G??O?@??C??c??O?@??W_?A??G?FA??G??_?{C??O?@?BwC??O?@?FwA??G??_F{?_?A??GB~?C??O?@?~w?O?@??CF~_?_?A??G^~??_?A??G~~??O?@??C~~_?C??O?@^~w??_?A??N~~'
p46
sS'K04K15'
p47
S'{~~~~~~~~~~~~~~~~~{??O?C_?W_?wO?{C?^?_FwA?~_CB~?CF~?AF~_?b~w?C~~??V~{??~~{??_?A??O?C_?C?BC??_?wO?A?F__?C?^?_?C?~?O?A?~_C??_^w?_?CF~?A??O~{?C??b~w?C??f~w?A??V~{??_?F~~_?C??_?A??O?A??c??_?C?BC??_?C?FA??O?A?F__?C??_BwC??_?C?~?O?A??OF{?_?C??_^w?_?C??_~w?O?A??O~{?C??_?C^~??_?C??f~w?A??O?A~~_?C??_?F~~'
p48
sS'K04K14'
p49
S'w~~~~~~~~~~~~~~~o?A?@G?KO?wO@wG@{A?~?ONw@@~_AF~?AN~?@N~_?V~w?B~~_?G?@??O?H??O?W_?G?[G?A?N@??OBwC?@?^_G?A@~?G?AB~?C?@B~_@??P~w?G?A^~??_?J~{?@??^~{?@??O?A??_?G?C_?G?A?BC?@??O?wO?C?@?F__?G?A?^?_?G?A?~?O?C?@?~_C?@??O^w?_?G?AF~?A??_?G~{?C?@??R~w?C?@??V~w?A??_?N~{'
p50
sS'K04K13'
p51
S's~~~~~~~~~~~~~_?G?H?BC?[G@wGBwCB{@@~?G^w?b~_@N~?@^~??~~o?G?A?@?@G?C?KO?G?wO?G@wG?C@{A?@?~?O?GNw@??`~_A?@F~?A?@N~?@??n~_?O?N~{?A?@??O?G?C?C_?O?G?W_?O?G?wO?G?C?{C?A?@?^?_?O?GFwA?@??_~_C?A?@B~?C?A?@F~?A?@??f~_?_?O?J~w?C?A?@~~'
p52
sS'K04K12'
p53
S'o~~~~~~~~~~~_?O?c?W_FA?{CBwCFwAF{?b~?C~w?V~_?~~_?_?O?O?c?C?W_?_FA?A?{C?CBwC?CFwA?AF{?_?b~?C?C~w?O?V~_?_?~~_?_?_?O?O?O?c?C?C?W_?_?_FA?A?A?{C?C?CBwC?C?CFwA?A?AF{?_?_?b~?C?C?C~w?O?O?V~_?_?_?~~'
p54
sS'K04K11'
p55
S'k~~~~~~~~~o?O@G@a?wON@@{AFwANw@N{?V~?B~{?G?G?O@G?OBC?GB`?A@wG?O^?_@B{@?ANw@?A^w?_@^{?G?^~_@?A?A?C?G?c?G?OBC?G?OFA?C?GF__@?ABwC?G?O~?O?_@F{?_@?A^w?_@?A~w?O?_@~{'
p56
sS'K04K10'
p57
S'g~~~~~~~{?G@GBCB`@wG^?b{@Nw@^w?~}?G?O@?H?C@a?GFA?GN@?CN_O@FwA?H~?G?n{?O@~{?O@?A?G?_C_A?GBC?O@?wO@?CF__A?G^?_A?G~?O@?C~_C?O@^w?_A?N~'
p58
sS'K04K19'
p59
S'~?@K~~~~~~~~~~~~~~~~~~~~~~~~~~~~{??@??@G??W_?B`??N@??^?_?^_G?Nw@?B~?C?^{?G@~w?GB~w?CB~{?@@~~??G^~w??b~~_?@N~~??@^~~???~~~o??G??A??@??@G??C??KO??G??wO??G?@wG??C?@{A??@??~?O??G?Nw@???_@~_A??@?F~?A??@?N~?@???_N~_?O??GF~w?A??@@~~??G??CN~{??O??G~~w??O??H~~w??G??D~~{??A??@~~~_??O??G??A??@???_??c??A??@??BC??A??@??FA??@???_?F__??O??G?BwC??A??@??~?O??G??C?F{?_??O??G?^w?_??O??G?~w?O??G??C?~{?C??A??@?^~??_??O??GF~w?A??@???_~~_?C??A??@B~~??C??A??@F~~??A??@???f~~_??_??O??J~~w??C??A??@~~~'
p60
sS'K04K18'
p61
S'~?@G~~~~~~~~~~~~~~~~~~~~~~~~~{??A??C_?BC??wO?F__?^?_?~?O?~_C?^w?_F~?A?~{?CB~w?CF~w?AF~{??b~~??C~~w??V~~_??~~~_??_??O??O??c??C??W_??_?FA??A??{C??C?BwC??C?FwA??A?F{?_??_B~?C??C?~w?O??OF~_?_??_^~??_??_~~??O??O~~_?C??C^~w??_??f~~??A??A~~{??C??F~~{??C??C??A??A??A??C_??_??_?BC??C??C??wO??O??O?F__??_??_?^?_??_??_?~?O??O??O?~_C??C??C?^w?_??_??_F~?A??A??A?~{?C??C??CB~w?C??C??CF~w?A??A??AF~{??_??_??b~~??C??C??C~~w??O??O??V~~_??_??_??~~~'
p62
sS'C09Pow02'
p63
S'HzKW[NB'
p64
sS'K03K05K05'
p65
S'~?@J~}AHKVB{GGPGRCJ`B{GOO`C`AW`AwO`}CGOO`AHACHaCGVACG^_???G???H???BC???[G??@wG??A?C??@C@???R?G??Aw?_??N_@??GO?@??GP??_?CH_?G?@Aw?@??G^??C?O`???G?`AG??G?`AW??C?O`[??@?CG^???GO`A????`ACG_??@ACGR???@ACGV????`ACNo???G???A???@???@G???C???KO???G???wO???G??@wG???C??@?A???@???P?O???G??AW@????_??J_A???@???^?A???@??GO?@????_?CG_?O???G?@AW?A???@??GV??G???C??`{??O???G?`A???O???G?`AG??G???C?O`K??A???@?CGV???O???G?`Bw??@????`ACG???A???@ACGP???A???@ACGR???@????`ACJ_???O???GO`Bw'
p66
sS'K03K05K06'
p67
S'~?@Y~~{ACbCwV_~__OOcCW_fAA{CF{CCAAAC__bCCCwOOV___~____OOOOcCCCW___fAAAA{CCCF{????A????C_???BC????wO???F__???^?_???_?O???O_C???CW?_???f?A???A{?C???Fw?C??CC??A??AAC??_??_b??C??CCw??O??OV_??_??_~???_?___???O?OOO_??C?CCCW???_?__f???A?AAA{???C?CCFw???CCCCC????AAAAAC????____b????CCCCCw????OOOOV_????____~_????_????O????O????c????C????W_????_???FA????A????{C????C???BwC????C???C?A????A???AC?_????_???b?C????C???Cw?O????O???V_?_????_???~??_????_??__??O????O??OO_?C????C??CCW??_????_??_f??A????A??AA{??C????C??CFw??C????C?CCC???A????A?AAAC???_????_?__b???C????C?CCCw???O????O?OOV_???_????_?__~????_????_____????O????OOOOO_???C????CCCCCW????_????____f????A????AAAAA{????C????CCCCFw'
p68
sS'K08K08'
p69
S'~?@?~~~~}?OH@aFAN@N_VwB~_G@?OH?OW_G[GAN@?RwC@^_GB~_GA?OC@?c@?OW_GAFA?_G{C@?RwC@?VwA?_N}?_GA?OC@?OH?OC@@a?_GAFA?_GAN@?OC@N_OC@?VwA?_GB~_GA?_G@?OC@?OH?OC@?OW_GA?_G[GA?_GAN@?OC@?RwC@?OC@^_GA?_GB~_GA?_GA?OC@?OC@?c@?OC@?OW_GA?_GAFA?_GA?_G{C@?OC@?RwC@?OC@?VwA?_GA?_N}?_GA?_GA?OC@?OC@?OH?OC@?OC@@a?_GA?_GAFA?_GA?_GAN@?OC@?OC@N_OC@?OC@?VwA?_GA?_GB~'
p70
sS'K08K09'
p71
S'~?@G~~~~~~_A?cBCFAF_bwC~?V{?~{?_A?OC_CBC?_wOAF__C^?_C~?OA~_C?~{?_C?OA?OC_C?_W_C?_wOA?O{C?_C^?_C?fwA?OA~_C?_F~_C?_C?OA?OA?c?_C?_W_C?_CFA?OA?O{C?_C?bwC?_C?fwA?OA?V{?_C?_F~_C?_C?_A?OA?OA?c?_C?_CBC?_C?_CFA?OA?OAF__C?_C?bwC?_C?_C~?OA?OA?V{?_C?_C?~{?_C?_C?_A?OA?OA?OC_C?_C?_CBC?_C?_C?_wOA?OA?OAF__C?_C?_C^?_C?_C?_C~?OA?OA?OA~_C?_C?_C?~{?_C?_C?_C?OA?OA?OA?OC_C?_C?_C?_W_C?_C?_C?_wOA?OA?OA?O{C?_C?_C?_C^?_C?_C?_C?fwA?OA?OA?OA~_C?_C?_C?_F~'
p72
sS'C79Pow16'
p73
S'~?@N~~~~~~~~~~~~~~~~~~~~~~|~~x~~w~~{N~~@~~wF~~_N~~?N~~?F~~_@~~w?N~~??~~{?@~~w?@~~w??~~{??N~~??@~~w??F~~_??N~~???N~~???F~~_??@~~w???N~~????~~{???@~~w???@~~w????~~{????N~~????@~~w????F~~_????N~~?????N~~?????F~~_????@~~w?????N~~??????~~{?????@~~w?????@~~w??????~~{??????N~~??????@~~w??????F~~_??????N~~???????N~~???????F~~_??????@~~{???????N~~o???????~~~_??????@~~~_??????@~~~o???????~~~{???????N~~~_??????@~~~}???????F~~~{???????N~~~{???????N~~~}???????F~~~~_??????@~~~~{???????N~~~~o???????~~~~~_??????@~~~~~_??????@~~w'
p74
sS'C80Pow16'
p75
S'~?@O~~~~~~~~~~~~~~~~~~~~~~|~~x~~w~~{N~~@~~wF~~_N~~?N~~?F~~_@~~w?N~~??~~{?@~~w?@~~w??~~{??N~~??@~~w??F~~_??N~~???N~~???F~~_??@~~w???N~~????~~{???@~~w???@~~w????~~{????N~~????@~~w????F~~_????N~~?????N~~?????F~~_????@~~w?????N~~??????~~{?????@~~w?????@~~w??????~~{??????N~~??????@~~w??????F~~_??????N~~???????N~~???????F~~_??????@~~w???????N~~_???????~~~???????@~~~???????@~~~_???????~~~w???????N~~~???????@~~~{???????F~~~w???????N~~~w???????N~~~{???????F~~~~???????@~~~~w???????N~~~~_???????~~~~~???????@~~~~~???????@~~~~~_???????~~{'
p76
sS'K03K03K08'
p77
S'~?@G~~~~}?OH@aFAN@N_VwB~_G@?OH?OW_G[GAN@?RwC@^_GB~_???O???c???W_??FA???{C??BwC??FwA??F{?_?A??C??OG?O?@@_?_?AF??_?AN??O?@N_?C??Vw??_?B~??A?_G???C@?OG??C@?OW??A?_G[???_GAN???C@?Rw???OC@^_???_GB~_???_???O???O???c???C???W_???_??FA???A???{C???C??BwC???C??FwA???A??F{?_???_?A??C???C??OG?O???O?@@_?_???_?AF??_???_?AN??O???O?@N_?C???C??Vw??_???_?B~??A???A?_G???C???C@?OG??C???C@?OW??A???A?_G[???_???_GAN???C???C@?Rw???O???OC@^_???_???_GB~'
p78
sS'K03K03K09'
p79
S'~?@P~~~~~~_A?cBCFAF_bwC~?V{?~{?_A?OC_CBC?_wOAF__C^?_C~?OA~_C?~{????O???C_???W_???wO???{C???^?_??FwA???~_C??B~?C??C??A??A?_?_??_W?C??CF??O??O{??_??bw??_??fw??O??V{??C??F~???_C?_???A?OA?_??C?_CB???C?_CF???A?OAF_???_C?bw???C?_C~????OA?V{????_C?~{????_???A????O???C_???C???BC????_???wO???A???F__???C???^?_???C???~?O???A???~_C????_??^w?_???C??C??A????O??OC?C????_??_W?C????_??_w?A????O??O{??_???C??C^??C????_??fw??O???A??A~_??_???C??F~???_???C?_C????O???A?OA?_??C????_C?_W???_???C?_CF???A????OA?O{???C????_C?bw???C????_C?fw???A????OA?V{????_???C?_F~'
p80
sS'Q2K09'
p81
S'c~~~~~~_A?cBCFAF_bwC~?V{?~{??A??C_?BC??wO?F__?^?_?~?O?~_C?^w?_C??A?OC?C?_W?C?_w?A?O{??_C^??C?fw??OA~_??_F~'
p82
sS'Q2K08'
p83
S'_~~~~}?OH@aFAN@N_VwB~_?@??H??W_?[G?N@?BwC?^_G@~?GA??C@?_@?OW?GAF??_G{?@?Rw?@?Vw??_N{'
p84
sS'C13Pow04'
p85
S'L~|xw{N`}F{N{N'
p86
sS'Q2K05'
p87
S'S~}AHKVB{?G@GBCB`@wGO?`C@AW@Aw?`{'
p88
sS'C08Pow02'
p89
S'GzK[]K'
p90
sS'Q2K07'
p91
S'[~~~{@@GWb`N@^?~o?A?@G?KO?wO@wG@{A?~?OG?@?__A@B?A@F?@?f_?OJw?A@~'
p92
sS'Q2K06'
p93
S'W~~{ACbCwV_~_?O?c?W_FA?{CBwCC?AAC?_b?CCw?OV_?_~'
p94
sS'C52Pow08'
p95
S's~~~~~~^x~b~B~@~_^wB~?N{?^w?^w?N{?B~??^w?@~_?B~??B~??@~_??^w??B~???N{???^w???^w???N{???B~????^w???@~_???B~????B~????@~_????^w????B~?????N{?????^w?????^w?????N}?????B~o?????^~?????@~}?????B~}?????B~~?????@~~o?????^~}?????B~'
p96
sS'K03K03K07'
p97
S'~??~~~~{@@GWb`N@^?~oGA@@GCKOGwOHwGD{A@~_??A???c??BC??FA??F__?BwC??~?O?C??_?GG?_?GW?O?C[?C?@N??_?Jw?A??~_?CA@???CA@@??A@?`_??_OGw??CA@N???OGD{???_ON{???_??A???O??C_??C??BC???_??wO??A??F__??C??^?_??C??~?O??A??_?C???_?GG?_??C?@B?A???O?C[?C???_?Hw?C???_?Jw?A???O?F{??_??CA@???C???_OGG??O??A@?`_??_??CA@F???_??CA@N???O??A@?n_??C???_ONw'
p98
sS'Q2K03'
p99
S'K{S{ACbC_Q_f'
p100
sS'K03K03K05'
p101
S'l~}AHKVB{GGPGRCJ`B{??O?C_?W_?wO?{C?O?_AGA?H_C?V?C?^?ACG??`AG?CGR??O`[??`B{??_?A??O?C_?C?BC??_?wO?A?F__?C?O?_?C?P?O?A?H_C??_Aw?_?C?^?A??O`??C??`AG?C??`AW?A??O`[??_?CG^'
p102
sS'K05K05K05'
p103
S'~?@|~}AHKVB{GGPGRCJ`B{GOO`C`AW`AwO`}CGOO`AHACHaCGVACG^_???G???H???BC???[G??@wG??A?C??@C@???R?G??Aw?_??N_@??GO?@??GP??_?CH_?G?@Aw?@??G^??C?O`???G?`AG??G?`AW??C?O`[??@?CG^???GO`A????`ACG_??@ACGR???@ACGV????`ACNo???G???A???@???@G???C???KO???G???wO???G??@wG???C??@?A???@???P?O???G??AW@????_??J_A???@???^?A???@??GO?@????_?CG_?O???G?@AW?A???@??GV??G???C??`{??O???G?`A???O???G?`AG??G???C?O`K??A???@?CGV???O???G?`Bw??@????`ACG???A???@ACGP???A???@ACGR???@????`ACJ_???O???GO`B{???A???@????O???G???C???C_???O???G???W_???O???G???wO???G???C???{C???A???@???O?_???O???G??AGA???@????_??H_C???A???@???V?C???A???@???^?A???@????_?CG??_???O???G?@AG?C???A???@??GR??O???G???C??`[??_???O???G?@Bw??_???O???G?`A???O???G???C?O`C??C???A???@?CGR???_???O???G?`Aw??A???@????_ACN_??C???A???@ACGO???C???A???@ACGP???A???@????`ACH_???_???O???GO`Aw???C???A???@ACG^_???O???G???C???@????_???O???G???H????_???O???G???W_???O???G???C???[G???C???A???@???N@????_???O???G??A?C???A???@????_??G_G???C???A???@???R?G???C???A???@???V?C???A???@????_??N_@????_???O???G?@A??G???C???A???@??GP??_???O???G???C??`K?@????_???O???G?@Aw?@????_???O???G?@Bw??_???O???G???C?O`???G???C???A???@?CGP??@????_???O???G?`AW??C???A???@????_ACJ_??G???C???A???@?CG^???G???C???A???@ACGO???C???A???@????`ACG_??@????_???O???GO`AW???G???C???A???@ACGV????_???O???G???CGO`{'
p104
sS'C48Pow08'
p105
S'o~~~~~~^x~b~B~@~_^wB~?N{?^w?^w?N{?B~??^w?@~_?B~??B~??@~_??^w??B~???N{???^w???^w???N{???B~????^w???@~_???B~????B~????@~_????^w????B~_????N~?????^~?????^~_????N~w????B~~?????^~{????@~~w????B~'
p106
sS'C23Pow04'
p107
S'V~|xw{N@wF_N?N?F_@w?N??{?@w?@{??~??Nw?@~_?F_'
p108
sS'Q5K03'
p109
S'~?@_{S{ACbC_Q_f_?O?c?W_CA?SC?wCC?AAC?_b?CC_?OQ_?_f_???O???c???W_??CA???SC???wC??C?A??AC?_??b?C??C_?O??Q_?_??f??_?_???O?O?_?C?C?W??_?_C??A?A?S??C?C?w??C?CC???A?AAC???_?_b???C?CC_???O?OQ_???_?_f_???????O???????c???????W_??????CA???????SC???????wC??????C?A??????AC?_??????b?C??????C_?O??????Q_?_??????f??_?????_???O?????O?_?C?????C?W??_?????_C??A?????A?S??C?????C?w??C?????CC???A?????AAC???_?????_b???C?????CC_???O?????OQ_???_?????_f????_???_???????O???O???_???C???C???W????_???_??C????A???A???S????C???C???w????C???C??C?????A???A??AC?????_???_??b?????C???C??C_?????O???O??Q_?????_???_??f??????_???_?_???????O???O?O?_?????C???C?C?W??????_???_?_C??????A???A?A?S??????C???C?C?w??????C???C?CC???????A???A?AAC???????_???_?_b???????C???C?CC_???????O???O?OQ_???????_???_?_f'
p110
sS'Q2K03K03'
p111
S'cr`HOmGPHDAJ_?O?c?O_BA?_C@GC@OA?k?aG?CPG?PD??aJ_?_?O?O?c?C?O_?_BA?A?_C?C@GC?C@OA?A?k?_?aG?C?CPG?O?PD??_?aJ'
p112
sS'Q2K03K06'
p113
S'~?@Gr`HOmGPHDAJaGPCcPOaJaG`CPHCPOaGmGaGPCPHCPDAGaJ_???O???c???O_??BA???_C??@GC??@OA???k?_?AG?C??PG?O?@D??_?AJ??_?aG??O?PC_?C?CPO??_?aJ??A?aG_??C@CPG??C@CPO??A?aGk???aGaG???CPCPG???PCPD????aGaJ_???_???O???O???c???C???O_???_??BA???A???_C???C??@GC???C??@OA???A???k?_???_?AG?C???C??PG?O???O?@D??_???_?AJ??_???_?aG??O???O?PC_?C???C?CPO??_???_?aJ??A???A?aG_??C???C@CPG??C???C@CPO??A???A?aGk???_???aGaG???C???CPCPG???O???PCPD????_???aGaJ'
p114
sS'Q2K03K07'
p115
S'~?@Sr`HOmGPHDAJaGPCcPOaJaG`CPHCPOaGmGaGPCPHCPDAGaJaGaGPCPCcPCPOaGaJ_???@????H????O_???KG???G@???@GC???D?G???J?G??AG?C??@C_@???PO?G??AJ??_?AG_?@??CPG?@??CPO??_?AGk??G?GaG??@?@CPG??C?CPD???G?GaJ???GAGaG???C@CPC_??@?PCPO???GAGaJ????aGaG_???@CPCPG???@CPCPO????aGaGm????G????O???@????H????C???@A????G???BA????G???G@????C???C_O???@???@OA????G???J?G????_??G_?O???@???PG?O???@???PO?G????_??Gk?A????G??aG??O???@??CPG?@????C??PD??A????G??aJ??A????G?GaG??@????C?CPC_??O???@?@CPO??A????G?GaJ???G????_GaG_???O???@?PCPG???O???@?PCPO???G????_GaGk???A????GaGaG????O???@CPCPG???@????CPCPD????A????GaGaJ'
p116
sS'Q2K03K04'
p117
S'or`HOmGPHDAJaGPCcPOaJ_?@??H??O_?KG?G@?@GC?D?G?J?GAG?C@C_@?PO?GAJ??aG_?@CPG?@CPO??aGm??G??O?@??H??C?@A??G?BA??G?G@??C?C_O?@?@OA??G?J?G??_G_?O?@?PG?O?@?PO?G??_Gk?A??GaG??O?@CPG?@??CPD??A??GaJ'
p118
sS'Q2K03K05'
p119
S'{r`HOmGPHDAJaGPCcPOaJaG`CPHCPOaGm???O??H??@A??BA??G@??C_O?@OA??J?G?G_?O?PG?O?PO?G?Gk?A?aG??OCPG?@?PD??A?aJ??AGaG??@CPC_??PCPO??AGaJ_??G??@???O??H???O??O_??G??KG??A??G@???O?@GC??@??D?G??A??J?G??A?AG?C??@?@C_@???O?PO?G??A?AJ??_??GAG_?@???OCPG?@???OCPO??_??GAGk??G??AGaG??@???PCPG??C??@CPD???G??AGaJ'
p120
sS'C54Pow08'
p121
S'u~~~~~~^x~b~B~@~_^wB~?N{?^w?^w?N{?B~??^w?@~_?B~??B~??@~_??^w??B~???N{???^w???^w???N{???B~????^w???@~_???B~????B~????@~_????^w????B~?????N{?????^w?????^w?????N{?????B~??????^{?????@~w?????B~w?????B~{?????@~~??????^~w?????B~~_?????N~~??????^w'
p122
sS'C22Pow04'
p123
S'U~|xw{N@wF_N?N?F_@w?N??{?@{?@}??~_?N{?@w'
p124
sS'Q3K06'
p125
S'o~~{ACbCwV_~_?O?c?W_FA?{CBwCC?AAC?_b?CCw?OV_?_~_???O???c???W_??FA???{C??BwC??C?A??AC?_??b?C??Cw?O??V_?_??~??_?_???O?O?_?C?C?W??_?_F??A?A?{??C?CBw??C?CC???A?AAC???_?_b???C?CCw???O?OV_???_?_~'
p126
sS'Q3K07'
p127
S'w~~~{@@GWb`N@^?~o?A?@G?KO?wO@wG@{A?~?OG?@?__A@B?A@F?@?f_?OJw?A@~_???@????H????W_???[G???N@???BwC???^_G??@??G??@@?C???`_@???Gw?G??@N??_??D{?@???Nw?@??O????_?G?C??G?A?B??@??O?w??C?@?F_??G?A?^???G?A?~???C?@?_???@??OGG???G?A@B????_?GC[???@??OHw???@??OJw????_?GF{'
p128
sS'Q3K04'
p129
S'_~`HW}?OH@aFAG@C_PWAN_?@??H??W_?[G?G@?@GC?D_G?N?GA??C@?_@?OW?GAF??_G_?@?PG?@?PW??_G{'
p130
sS'Q3K05'
p131
S'g~}AHKVB{?G@GBCB`@wGO?`C@AW@Aw?`}???O??H??@a??FA??N@??G?O?AGA??R?G?@[?O?Bw?O@???G?_C?A?GB??O@?w?@?CF_?A?GO??A?GP??@?CH_??O@Aw??A?G^'
p132
sS'Q3K03'
p133
S'W{S{ACbC_Q_f_?O?c?W_CA?SC?wCC?AAC?_b?CC_?OQ_?_f'
p134
sS'Q3K08'
p135
S'~?@?~~~~}?OH@aFAN@N_VwB~_?@??H??W_?[G?N@?BwC?^_G@~?GA??C@?_@?OW?GAF??_G{?@?Rw?@?Vw??_N}?????O????H????@a????FA????N@????N_O???FwA???@~?G???G??O???OG?O???OW?G???G[?A???AN??O???Rw?@???@^_?A???B~??A??G????@??C??_??O?@??W??A??G?F???G??_?{???O?@?Bw???O?@?Fw???G??_F{???A??GA?????O?@?OG???@??C@@_???A??GAF????A??GAN????@??C@N_????O?@?Vw????A??GB~'
p136
sS'Q3K09'
p137
S'~?@G~~~~~~_A?cBCFAF_bwC~?V{?~{??A??C_?BC??wO?F__?^?_?~?O?~_C?^w?_C??A?OC?C?_W?C?_w?A?O{??_C^??C?fw??OA~_??_F~_?????O?????c?????W_????FA?????{C????BwC????FwA????F{?_???B~?C????_??O???A?_?_???CB??_???CF??O???AF_?C????bw??_???C~??A????V{??C????~w??C??C?????A??A??C???_??_?B???C??C??w???O??O?F_???_??_?^????_??_?~????O??O?~_???C??C?^w????_??_C?????A??A?OC????C??C?_W????C??C?_w????A??A?O{?????_??_C^?????C??C?fw?????O??OA~_?????_??_F~'
p138
sS'DenBip15'
p139
S']?????????????????@bv{Hzvgdy~E\\mBJr_JZgBx|?P|o?xUo?Rv_?Uww?A}~??mnW?BY{???'
p140
sS'DenBip14'
p141
S'[???????????????\\l}Lk^sOt]DW{@\\iBVL?YVoE|C?J\\G?kho?k}??SZg?Er]??'
p142
sS'DenBip17'
p143
S'a??????????????????????@}k~^JtUdoTzW|hKEp^?E}Y?zRy?F\\q?^~N?Drp_?Hj{?BiVG?EUko?Apz_?BL^G??S~e???'
p144
sS'DenBip16'
p145
S'_????????????????????s]V\\ndXs`rR`YmO}fOC}T?Jy]?wnC?jHw?VmG?Am|??{|{?Bng_?FM~_?F@^_??'
p146
sS'DenBip11'
p147
S'U?????????H}v][u^rA^OjeBMgFf?Dz_@sw?m[??'
p148
sS'DenBip10'
p149
S'S???????F}{[v_rKFwDJ_mKBPo@^_Bl??'
p150
sS'DenBip13'
p151
S'Y?????????????\\{u{q^gznb[uDw{FYS@V[?I~?Fqc?]XO?}J_?bn???'
p152
sS'DenBip12'
p153
S'W???????????}mh]UReyGJZBG{FuGBiW@fo?fv?E~o?E}??'
p154
sS'K09K10'
p155
S'~?@Y~~~~~~~{?G@GBCB`@wG^?b{@Nw@^w?~}?G?O@?H?C@a?GFA?GN@?CN_O@FwA?H~?G?n{?O@~{?O@?A?G?_C_A?GBC?O@?wO@?CF__A?G^?_A?G~?O@?C~_C?O@^w?_A?N~_A?G?_@?C?O@?H?C?O@?W_A?G?_[G?_A?GN@?C?O@BwC?O@?C^_G?_A?H~?G?_A?J~?C?O@?F~o@?C?O@?A?G?_A?G@G?_A?G?_KO@?C?O@?wO@?C?O@@wG?_A?G?`{A?G?_A?G~?O@?C?O@Nw@?C?O@?D~_A?G?_A?N~_A?G?_A?G?O@?C?O@?C?c?O@?C?O@?W_A?G?_A?GFA?G?_A?G?_{C?O@?C?O@BwC?O@?C?O@FwA?G?_A?G?f{?_A?G?_A?J~?C?O@?C?O@~{?O@?C?O@?C?G?_A?G?_A?G@G?_A?G?_A?GBC?O@?C?O@?CB`?C?O@?C?O@@wG?_A?G?_A?G^?_A?G?_A?G?b{@?C?O@?C?O@Nw@?C?O@?C?O@^w?_A?G?_A?G?~}?G?_A?G?_A?G?O@?C?O@?C?O@?H?C?O@?C?O@?C@a?G?_A?G?_A?GFA?G?_A?G?_A?GN@?C?O@?C?O@?CN_O@?C?O@?C?O@FwA?G?_A?G?_A?H~?G?_A?G?_A?G?n{?O@?C?O@?C?O@~w'
p156
sS'K09K11'
p157
S'~?@b~~~~~~~~~o?O@G@a?wON@@{AFwANw@N{?V~?B~{?G?G?O@G?OBC?GB`?A@wG?O^?_@B{@?ANw@?A^w?_@^{?G?^~_@?A?A?C?G?c?G?OBC?G?OFA?C?GF__@?ABwC?G?O~?O?_@F{?_@?A^w?_@?A~w?O?_@~}?C?G?O?O?_@?A?H?A?C?G@a?C?G?OFA?C?G?ON@?A?C?GN_O?_@?AFwA?C?G?P~?G?O?_@N{?O?_@?A~w?O?_@?B~{?G?O?_@?@?A?C?G?O@G?O?_@?A?W_@?A?C?GB`?A?C?G?ON@?A?C?G?O^?_@?A?C?G^_G?O?_@?ANw@?A?C?G?R~?C?G?O?_@^{?G?O?_@?B~{?G?O?_@?A?A?C?G?O?_@?C_@?A?C?G?OBC?G?O?_@?A?wO?_@?A?C?GF__@?A?C?G?O^?_@?A?C?G?O~?O?_@?A?C?G~_C?G?O?_@?A^w?_@?A?C?G?V~?A?C?G?O?_@~}?C?G?O?_@?A?A?C?G?O?_@?A?H?A?C?G?O?_@?KO?_@?A?C?G?OFA?C?G?O?_@?A@wG?O?_@?A?C?GN_O?_@?A?C?G?O~?O?_@?A?C?G?P~?G?O?_@?A?C?H~_A?C?G?O?_@?A~w?O?_@?A?C?G?^~_@?A?C?G?O?_@?@?A?C?G?O?_@?A?H?A?C?G?O?_@?A?W_@?A?C?G?O?_@?[G?O?_@?A?C?G?ON@?A?C?G?O?_@?ABwC?G?O?_@?A?C?G^_G?O?_@?A?C?G?P~?G?O?_@?A?C?G?R~?C?G?O?_@?A?C?J~_@?A?C?G?O?_@?B~w'
p158
sS'C05C05Q2'
p159
S'~?@cr`HOmGPHDAJaGPCcPOaJaG`CPHCPOaGm???O??H??@A??BA??G@??C_O?@OA??J?G?G_?O?PG?O?PO?G?Gk?A?aG??OCPG?@?PD??A?aJ??AGaG??@CPC_??PCPO??AGaJ_??G??@???O??H???O??O_??G??KG??A??G@???O?@GC??@??D?G??A??J?G??A?AG?C??@?@C_@???O?PO?G??A?AJ??_??GAG_?@???OCPG?@???OCPO??_??GAGk??G??AGaG??@???PCPG??C??@CPD???G??AGaJ_??G??A???O??C??@???c??@???O??O_??G??A??BA???_??G??_C??@???O?@GC??@???O?@OA???_??G??k?_??G??A?AG?C??@???O?PG?O??C??@?@D??_??G??A?AJ??_??G??A?aG??O??C??@?PC_?C??@???OCPO??_??G??A?aJ??A???_??GaG_??C??@???PCPG??C??@???PCPO??A???_??GaGm???_??G??A???O??C??@???O??H???O??C??@??@A???_??G??A??BA???_??G??A??G@???O??C??@??C_O??C??@???O?@OA???_??G??A??J?G??A???_??G?G_?O??C??@???O?PG?O??C??@???O?PO?G??A???_??G?Gk?A???_??G??A?aG??O??C??@???OCPG?@???O??C??@?PD??A???_??G??A?aJ??A???_??G??AGaG??@???O??C??@CPC_??O??C??@???PCPO??A???_??G??AGaJ'
p160
sS'C71Pow16'
p161
S'~?@F~~~~~~~~~~~~~~~~~~~~~~|~~x~~w~~{N~~@~~wF~~_N~~?N~~?F~~_@~~w?N~~??~~{?@~~w?@~~w??~~{??N~~??@~~w??F~~_??N~~???N~~???F~~_??@~~w???N~~????~~{???@~~w???@~~w????~~{????N~~????@~~w????F~~_????N~~?????N~~?????F~~_????@~~w?????N~~??????~~{?????@~~w?????@~~{??????~~~??????N~~w?????@~~~_?????F~~~??????N~~~??????N~~~_?????F~~~w?????@~~~~??????N~~~{??????~~~~w?????@~~~~w?????@~~~~{??????~~~~~??????N~~~~w?????@~~~~~_?????F~~_'
p162
sS'LemK10'
p163
S'~?@O~~~~~~~{?G@GBCB`@wG^?b{@Nw@^w?~}???O??H??@a??FA??N@??N_O?FwA?@~?G?N{?O?~w?O????G??C?A??B??O??w?@??F_?A??^??A??~??@??~_??O?^w??A?F~???G?_????O@?G???O@?W???G?_[???A?GN????O@Bw???@?C^_???A?H~????A?J~????@?F~_??C?O??????_A??@???A?G??K???C?O??w???C?O?@w???A?G?@{????_A??~????C?O?Nw????O@?@~_????_A?F~???G?_???????C?O????_??@?C????W???G?_???F????_A????{???@?C???Bw???@?C???Fw????_A???F{????G?_??B~????@?C???~w????C?O@?C??????G?_A?G@?????G?_A?GB?????C?O@?CB_????@?C?O@@w?????G?_A?G^??????_A?G?b{?????@?C?O@Nw?????@?C?O@^w??????_A?G?~{'
p164
sS'LemK11'
p165
S'~?@W~~~~~~~~~o?O@G@a?wON@@{AFwANw@N{?V~?B~{???G??@G??BC??B`??@wG??^?_?B{@??Nw@??^w?_?^{?G?N~?@?????C???_?G??B??G??F??C??F_?@??Bw??G??~???_?F{??@??^w??@??~w???_?~{???G?O????@?A?G???C?G@_???G?OF????G?ON????C?GN_???@?AFw????G?P~?????_@N{????@?A~w????@?B~w???O?_??????C?G??@????_@???W???A?C??B_???C?G??N????C?G??^????A?C??^_????_@??Nw????C?G?B~?????O?_?^{?????_@?@~w???O?_????????G?O????C???A?C????B????O?_????w???@?A????F_???A?C????^????A?C????~????@?A????~_????O?_???^w????A?C???F~?????G?O???~{?????O?_@?A???????O?_@?A?G?????G?O?_@?K?????A?C?G?OF??????O?_@?A@w?????@?A?C?GN_?????A?C?G?O~??????A?C?G?P~??????@?A?C?H~_??????O?_@?A~w??????A?C?G?^~'
p166
sS'LemK12'
p167
S'~?@_~~~~~~~~~~~_?O?c?W_FA?{CBwCFwAF{?b~?C~w?V~_?~~_???O???c???W_??FA???{C??BwC??FwA??F{?_?B~?C??~w?O?F~_?_?^~??_?????O???_?C???W??_??F??A???{??C??Bw??C??Fw??A??F{???_?B~???C??~w???O?F~_???_?^~????_?_?????O?O?_???C?C?W????_?_F????A?A?{????C?CBw????C?CFw????A?AF{?????_?b~?????C?C~w?????O?V~_?????_?~~????_?_???????O?O???_???C?C???W????_?_??F????A?A???{????C?C??Bw????C?C??Fw????A?A??F{?????_?_?B~?????C?C??~w?????O?O?F~_?????_?_?^~????_?_?????????O?O?????_???C?C?????W????_?_????F????A?A?????{????C?C????Bw????C?C????Fw????A?A????F{?????_?_???B~?????C?C????~w?????O?O???F~_?????_?_???^~??????_?_?_?_???????O?O?O?O?_?????C?C?C?C?W??????_?_?_?_F??????A?A?A?A?{??????C?C?C?CBw??????C?C?C?CFw??????A?A?A?AF{???????_?_?_?b~???????C?C?C?C~w???????O?O?O?V~_???????_?_?_?~~'
p168
sS'K05K07'
p169
S'b~~~{@@GWb`N@^?~oGA@@GCKOGwOHwGD{A@~_OGA@?_cA@BCA@FA@?f__OJwCA@~_OGC@?_OGH?_OGW_OGC[GCA@N@?_OJwCA@?~_'
p170
sS'K05K06'
p171
S']~~{ACbCwV_~__OOcCW_fAA{CF{CCAAAC__bCCCwOOV___~____OOOOcCCCW___fAAAA{CCCFw'
p172
sS'K05K05'
p173
S'X~}AHKVB{GGPGRCJ`B{GOO`C`AW`AwO`}CGOO`AHACHaCGVACG^'
p174
sS'K05K09'
p175
S'l~~~~~~_A?cBCFAF_bwC~?V{?~{?_A?OC_CBC?_wOAF__C^?_C~?OA~_C?~{?_C?OA?OC_C?_W_C?_wOA?O{C?_C^?_C?fwA?OA~_C?_F~_C?_C?OA?OA?c?_C?_W_C?_CFA?OA?O{C?_C?bwC?_C?fwA?OA?V{?_C?_F~'
p176
sS'K05K08'
p177
S'g~~~~}?OH@aFAN@N_VwB~_G@?OH?OW_G[GAN@?RwC@^_GB~_GA?OC@?c@?OW_GAFA?_G{C@?RwC@?VwA?_N}?_GA?OC@?OH?OC@@a?_GAFA?_GAN@?OC@N_OC@?VwA?_GB~'
p178
sS'PetK08'
p179
S'~?@O~~~~}?OH@aFAN@N_VwB~?G??OG?OW?G[?AN??Rw?@^_?B~??A???@?_??OW??AF???G{???Rw???Vw???N}???A?O???OH???@@a???AFA???AN@???@N_O???VwA???B~_?????@??????H??????W_?????[G?????N@?????BwC?????^_G????@~?G???????C??????_@??????W?G?????F??_?????{?@?????Bw?@?????Fw??_????F{??G???G????@???@??G??C???C?@_??G???G?F???G???G?N???C???C?N_??@???@?Fw???G???G@~????_?A?_?????@??C@??G???@??C@??W????_?A?_?[????G??_G?N????@??C@?Bw????C??OC?^_????G??_G@~?????G??_G???????C??OC??_????@??C@??W?????G??_G?F??????_?A?_?{?????@??C@?Bw?????@??C@?Fw??????_?A?_F{'
p180
sS'PetK09'
p181
S'~?@Y~~~~~~_A?cBCFAF_bwC~?V{?~w?_??OC?CB??_w?AF_?C^??C~??A~_??~w??C????OC???_W???_w???O{???C^????fw???A~_???F~_???C?O???A?c????_W_???CFA????O{C????bwC????fwA????V{?_???F~_??????A???????c??????BC??????FA??????F__?????BwC??????~?O?????F{?_?????^w?_????????O??????C?C??????B??_??????w?A??????F_?C??????^??C??????~??A??????~_??_?????^w??C????_?????O???A??C???_???C??W???_???C??w???O???A??{???C????_?^????_???C?Fw???A????O?~_???C????_B~????C??C?_??????A??A?O??_????_??_C??W????C??C?_?F?????O??OA??{?????_??_C?Bw?????_??_C?Fw?????O??OA?F{?????C??C?_B~??????_??_C????????A??A?O??_?????C??C?_?B??????C??C?_?F??????A??A?O?F_??????_??_C?Bw??????C??C?_?~???????O??OA?F{???????_??_C?^w'
p182
sS'PetK04'
p183
S'g~`HW{G@GD_N?G?C_@W?N_?`?@H?@W_?}???O??H??@a??FA???@???_O??WA??F?G?G??O?OG?O?OW?G?G[?A?a???OCOG?@?P@_?A?aF??A?a???@?P?_??OCOW??A?aF'
p184
sS'PetK05'
p185
S'q~}AHKVBwG?P?R?J_Bw?O?@C?AW?Aw?@}??OO?AH??Ha??VA??^_???G???H???BC???[G??@wG????C???C@???B?G???w?_??F_@??G??@??G@??_?C@_?G?@?w?@??GN??C?O_???G?`?G??G?`?W??C?O_[??@?CGN???G?`?????_AC?_??@?CGB???@?CGF????_ACF_'
p186
sS'PetK06'
p187
S'{~~{ACbCwV_~?_?O_CW?f?A{?Fw?C??AC??b??Cw??V_??~_??_O??Oc??CW_??fA??A{C??F{????A????C_???BC????wO???F__???^?_?????O????_C????W?_???F?A????{?C???Bw?C??C???A??A?C??_??_B??C??C?w??O??OF_??_??_^???_?__????O?OO?_??C?CC?W???_?__F???A?AA?{???C?CCBw???C?CC?????A?AA?C????_?__B????C?CC?w????O?OOF_????_?__^'
p188
sS'PetK07'
p189
S'~?@E~~~{@@GWb`N@^?~_G?@@?CK?Gw?Hw?D{?@~??G???__?@B??@F???f_??Jw??@~_??C@???GH???GW_??C[G??@N@???JwC???~o?????O????@G????@a?????wO????N@????@{A????FwA??????@?????C?O????B?A?????w?G????F_?O????^??O????~??G??@????A???O?G??O??A?B??@???G?[??A???O@w??A???OBw??@???GB{???O?CA?????A??_O?G???G?A@?@_???O?CA?F????O?CA?N????G?A@?N_???A??_OFw????O?CA??????@??OG?C????A??_O?W????A??_O?w????@??OG?{?????O?CA?^?????A??_OFw'
p190
sS'PetK02'
p191
S'SrGWOMAO[?G@G?C?`@?GH?a_@DG@D??ac'
p192
sS'PetK03'
p193
S']{Sw_SF?_A_F_COAc?{??O?C_?W_??O?CC?B?_C?A?O_C?b?CC_?AAO_?_cW?CC_??OQC??_cW'
p194
sS'C30Pow08'
p195
S']~~~~~~^x~b~B~@~_^wB~?N{?^w?^w?N{?B~??^{?@~w?B~w?B~{?@~~??^~w?B~~_?N~~??^w'
p196
sS'C87Pow16'
p197
S'~?@V~~~~~~~~~~~~~~~~~~~~~~|~~x~~w~~{N~~@~~wF~~_N~~?N~~?F~~_@~~w?N~~??~~{?@~~w?@~~w??~~{??N~~??@~~w??F~~_??N~~???N~~???F~~_??@~~w???N~~????~~{???@~~w???@~~w????~~{????N~~????@~~w????F~~_????N~~?????N~~?????F~~_????@~~w?????N~~??????~~{?????@~~w?????@~~w??????~~{??????N~~??????@~~w??????F~~_??????N~~???????N~~???????F~~_??????@~~w???????N~~????????~~{???????@~~w???????@~~w????????~~{????????N~~????????@~~w????????F~~o????????N~~o????????N~~w????????F~~}????????@~~~o????????N~~~?????????~~~}????????@~~~}????????@~~~~?????????~~~~o????????N~~~}????????@~~~~w????????F~~~~o????????N~~~~o????????N~~~~w????????F~~~~}????????@~~w'
p198
sS'K02K14'
p199
S'[~~~~~~~~~~~~~~~o?A?@G?KO?wO@wG@{A?~?ONw@@~_AF~?AN~?@N~_?V~w?B~~'
p200
sS'K03K05'
p201
S'N~}AHKVB{GGPGRCJ`Bw'
p202
sS'K03K04'
p203
S'K~`HW}GPHDaN'
p204
sS'K03K07'
p205
S'T~~~{@@GWb`N@^?~oGA@@GCKOGwOHwGD{A@~'
p206
sS'K03K06'
p207
S'Q~~{ACbCwV_~__OOcCW_fAA{CFw'
p208
sS'K03K03'
p209
S'H{S{aSf'
p210
sS'K03K09'
p211
S'Z~~~~~~_A?cBCFAF_bwC~?V{?~{?_A?OC_CBC?_wOAF__C^?_C~?OA~_C?~w'
p212
sS'K03K08'
p213
S'W~~~~}?OH@aFAN@N_VwB~_G@?OH?OW_G[GAN@?RwC@^_GB~'
p214
sS'C50Pow08'
p215
S'q~~~~~~^x~b~B~@~_^wB~?N{?^w?^w?N{?B~??^w?@~_?B~??B~??@~_??^w??B~???N{???^w???^w???N{???B~????^w???@~_???B~????B~????@~_????^w????B~?????N{?????^{?????^}?????N~_????B~{?????^~o????@~~_????B~~_????B~~o????@~_'
p216
sS'C69Pow16'
p217
S'~?@D~~~~~~~~~~~~~~~~~~~~~~|~~x~~w~~{N~~@~~wF~~_N~~?N~~?F~~_@~~w?N~~??~~{?@~~w?@~~w??~~{??N~~??@~~w??F~~_??N~~???N~~???F~~_??@~~w???N~~????~~{???@~~w???@~~w????~~{????N~~????@~~w????F~~_????N~~?????N~~?????F~~_????@~~w?????N~~??????~~}?????@~~}?????@~~~??????~~~o?????N~~}?????@~~~w?????F~~~o?????N~~~o?????N~~~w?????F~~~}?????@~~~~o?????N~~~~??????~~~~}?????@~~~~}?????@~~~~~??????~~~~~o?????N~~'
p218
sS'C19Pow04'
p219
S'R~|xw{N@wF_N?N?F_@{?No?~_@~_@w'
p220
sS'C07Pow02'
p221
S'FzM]W'
p222
sS'DenBip39'
p223
S'~?@M????????????????????????????????????????????????????????????????????????????????????????????????????????????????????????????\\z{uF`ZfBQJRzG\\kldU`drkY]iE|?\\suJBsXdyq]?e{fjPhwDVhsS`|?Rxu{Keg?[_Es}vo?bmv]VjO?M[ID]Vs?Awpk^uF??NrPVuIG?BA~lv~v_?CE|sclV??DjFya{m???~u?ZoZ_??r^LdjQO??@VbxGW~???J}\\EcFK???h[v|KoG???~RvBK^G???\\TO~XKg???Bt^fLiW????{RwKv}w????CnJ]Kz_???DQk}epd????@Y~FcMh????@jeb{~e?????unrx@@o????Eg\\NXRv?????NoPI^|C?????TP]^lIG?????Qvuc~z??????QCepfnw?????AJbRZuu??????lQI^v{_?????ByExvah???????'
p224
sS'C43Pow08'
p225
S'j~~~~~~^x~b~B~@~_^wB~?N{?^w?^w?N{?B~??^w?@~_?B~??B~??@~_??^w??B~???N{???^w???^w???N{???B~????^w???@~o???B~o???B~w???@~}????^~o???B~~????N~}????^~}????^w'
p226
sS'C10Pow04'
p227
S'I~||}~n|w'
p228
sS'W19'
p229
S'RhCGGC@?G?_@?@??_?G?@??E??N~~w'
p230
sS'W18'
p231
S'QhCGGC@?G?_@?@??_?G?@_?F~~w'
p232
sS'W17'
p233
S'PhCGGC@?G?_@?@??_?K?@~~{'
p234
sS'W16'
p235
S'OhCGGC@?G?_@?@??o?N~~'
p236
sS'W15'
p237
S'NhCGGC@?G?_@?@_?~~w'
p238
sS'W14'
p239
S'MhCGGC@?G?_@_@~~_'
p240
sS'W13'
p241
S'LhCGGC@?G?o@~~'
p242
sS'W12'
p243
S'KhCGGC@?K?~~'
p244
sS'W11'
p245
S'JhCGGC@_N~_'
p246
sS'W10'
p247
S'IhCGGE@~w'
p248
sS'C05K20'
p249
S'~?@c~~~~~~~~~~~~~~~~~~~~~~~~~~~~~~~}???O??H??@a??FA??N@??N_O?FwA?@~?G?N{?O?~w?O@~w?G@~{?A?~~??ON~w?@@~~_?AF~~??AN~~??@N~~_??V~~w??B~~~???G??????O??G???O??W???G??[???A??N????O?Bw???@??^_???A?@~????A?B~????@?B~_????O@~w????A?^~?????GB~{?????ON~w?????O^~w?????G^~{?????AN~~??????R~~w?????@^~~_?????B~~~??????A?????????@???_??????O??W??????A??F???????G??{???????O?Bw???????O?Fw???????G?F{???????A?B~????????O?~w???????@?F~_???????A?^~????????A?~~????????@?~~_????????O^~w????????AF~~?????????G~~{?????????R~~w?????????V~~w?????????N~~}?????????A???O?????????O??H?????????@??@a?????????A??FA?????????A??N@?????????@??N_O?????????O?FwA?????????A?@~?G?????????G?N{?O?????????O?~w?O?????????O@~w?G?????????G@~{?A?????????A?~~??O?????????ON~w?@?????????@@~~_?A?????????AF~~??A?????????AN~~??@?????????@N~~_??O?????????V~~w??A?????????B~~~'
p250
sS'C97Pow16'
p251
S'~?@`~~~~~~~~~~~~~~~~~~~~~~|~~x~~w~~{N~~@~~wF~~_N~~?N~~?F~~_@~~w?N~~??~~{?@~~w?@~~w??~~{??N~~??@~~w??F~~_??N~~???N~~???F~~_??@~~w???N~~????~~{???@~~w???@~~w????~~{????N~~????@~~w????F~~_????N~~?????N~~?????F~~_????@~~w?????N~~??????~~{?????@~~w?????@~~w??????~~{??????N~~??????@~~w??????F~~_??????N~~???????N~~???????F~~_??????@~~w???????N~~????????~~{???????@~~w???????@~~w????????~~{????????N~~????????@~~w????????F~~_????????N~~?????????N~~?????????F~~_????????@~~w?????????N~~??????????~~{?????????@~~w?????????@~~w??????????~~{??????????N~~_?????????@~~}??????????F~~{??????????N~~{??????????N~~}??????????F~~~_?????????@~~~{??????????N~~~o??????????~~~~_?????????@~~~~_?????????@~~~~o??????????~~~~{??????????N~~~~_?????????@~~~~}??????????F~~~~{??????????N~~~~{??????????N~~'
p252
sS'K02K08'
p253
S'O~~~~}?OH@aFAN@N_VwB~'
p254
sS'K02K09'
p255
S'Q~~~~~~_A?cBCFAF_bwC~?V{?~w'
p256
sS'K02K06'
p257
S'K~~{ACbCwV_~'
p258
sS'C42Pow08'
p259
S'i~~~~~~^x~b~B~@~_^wB~?N{?^w?^w?N{?B~??^w?@~_?B~??B~??@~_??^w??B~???N{???^w???^w???N{???B~????^{???@~w???B~w???B~{???@~~????^~w???B~~_???N~~????^w'
p260
sS'K02K04'
p261
S'G~`HW{'
p262
sS'K02K05'
p263
S'I~}AHKVBw'
p264
sS'C73Pow16'
p265
S'~?@H~~~~~~~~~~~~~~~~~~~~~~|~~x~~w~~{N~~@~~wF~~_N~~?N~~?F~~_@~~w?N~~??~~{?@~~w?@~~w??~~{??N~~??@~~w??F~~_??N~~???N~~???F~~_??@~~w???N~~????~~{???@~~w???@~~w????~~{????N~~????@~~w????F~~_????N~~?????N~~?????F~~_????@~~w?????N~~??????~~{?????@~~w?????@~~w??????~~{??????N~~_?????@~~}??????F~~{??????N~~{??????N~~}??????F~~~_?????@~~~{??????N~~~o??????~~~~_?????@~~~~_?????@~~~~o??????~~~~{??????N~~~~_?????@~~~~}??????F~~~~{??????N~~~~{??????N~~'
p266
sS'K02K03'
p267
S'E{Sw'
p268
sS'C61Pow16'
p269
S'|~~~~~~~~~~~~~~~~~~~~~~|~~x~~w~~{N~~@~~wF~~_N~~?N~~?F~~_@~~w?N~~??~~{?@~~w?@~~w??~~{??N~~??@~~w??F~~_??N~~???N~~???F~~_??@~~w???N~~????~~{???@~~w???@~~w????~~{????N~~_???@~~}????F~~{????N~~{????N~~}????F~~~_???@~~~{????N~~~o????~~~~_???@~~~~_???@~~~~o????~~~~{????N~~~~_???@~~~~}????F~~~~{????N~~~~{????N~~'
p270
sS'C05Q4'
p271
S'~?@Or`HOm?OH@ABAG@C_POAJ_?@??H??O_?KG?G@?@GC?D?G?J?GA??C@?_@?OO?GAB??_G_?@?PG?@?PO??_Gk??G????@??G??C?@???G?B???G?G???C?C_??@?@O???G?J????_G????@?OG???@?OO????_GK????GAG????@?PG????C@D?????GAJ?????G???????C??_????@??O?????G?B??????_?_?????@?@G?????@?@O??????_?k??????GA???????@?OG??????C@@???????GAB???????GAG???????C@C_??????@?PO???????GAJ_???????_?@???????@??H???????@??O_???????_?KG???????G?G@???????@?@GC???????C?D?G???????G?J?G???????GA??C???????C@?_@???????@?OO?G???????GAB??_???????_G_?@???????@?PG?@???????@?PO??_???????_Gk'
p272
sS'DenBip28'
p273
S'w???????????????????????????????????????????????????????????????mXyXEvO\\JUYLy^bYEJz`MR}ioP~YNWAhfVQ_ANi~e?khtkg?NbT~C?KVm]O?DT\\S^??csnjS?Aieqso?BXZYh??ApL~E??AeyP\\_??NyhNo??Fzcct???Ujz^M???Tu[P[???ymDpK???J~@IY???Bwxw^????mRqko???BZ~?UO???ELRX\\_???FQjme_????'
p274
sS'DenBip29'
p275
S'y???????????????????????????????????????????????????????????????????@IMztgx}zdFy?lLorZyR_{oh~UA}pI]O[m~n|?W}qqY?jfONM?Bm~[u?FYKr\\??HUd}k?B_}uPW?@dTMz_?F|BL~o?AceunG??s@}zc??DvyWa_??EYNj^???fuakM???ztotC???DNgU|???E~[^eo???mZmFM????Mj}NG???F|[rS_???Efvjmo???BrXgLg????tnZoA?????'
p276
sS'C05Q2'
p277
S'Sr`HOkG@GD?J?G?C_@O?J_?`?@H?@O_?k'
p278
sS'C05Q3'
p279
S'gr`HOm?OH@ABAG@C_POAJ?G??OG?OO?GK?AG??PG?@D??AJ??A???@?_??OO??AB???G_???PG???PO???Gm???A?O???OH???@@A???ABA???AG@???@C_O???POA???AJ'
p280
sS'DenBip24'
p281
S'o??????????????????????????????????????????????fmo^|cvGJ[wwaFFMw^rJu@z|C_@zITWEIY~?AQyLw?zUf|?@itf_?\\?|v??O|MZ??rJxv??\\Smh??Cht}g??meKt??@aNXs??BJ`bw??@rroo??An^Jk???fvfF???E|r_O???]gvo_???'
p282
sS'DenBip25'
p283
S'q??????????????????????????????????????????????????VyFWdNXVU_A~{M~eqa}UXeDX]s{F~@ng@VvQW?oxZT_@I|Z[?NR]K_?XrjM??MLZz_?Vuyo??AUyk{??VR{p??Bqmnw??Du[Mg??A{jLc??B\\b`q???t[[l???FirH{???THnhO???xmun????_m}b_????'
p284
sS'DenBip26'
p285
S's??????????????????????????????????????????????????????YC^ZVd|jqjzOSpYzNCF{Z}yBEFnc@U^gM?VBfr_FdrFO?S{yf_?[p`lo?aoN|_?Czvyg?DqzAY??HE]mo?@kn{V??CRg^k??EnwXE??AoZ{r???B[tj_??F~CNI???Xkp{G???NF[MO???M}WqO???JMbJW???CY{c}????'
p286
sS'DenBip27'
p287
S'u??????????????????????????????????????????????????????????CvoFy\\|m]rvHdQdIvVcEX~GXBjjFP?mLVdo@}OzZ?Fn\\tS?ZC~hO?oukvG?PYkN[?CnBy[??wL{jG?@xftU_?A|Xbt??FhMcu??Am^yk_??FzNGw??C~k?z???TMtbg???Tjm[g???RMUzO???OfXs{???B}l~v????{B~ro???BJTEr_????'
p288
sS'DenBip20'
p289
S'g???????????????????????????????Bw[s}Y`ufbYUt\\oUF{_glyOTwsWAjTq?EVfOAYZe?FuLm??^S}?Bv|Q??plx??FXyc??@uZg??Z^R???lLN_??Kw\\W??@Avy???'
p290
sS'DenBip21'
p291
S'i???????????????????????????????????bw]ihi|]{y?wm~OrRdWLIvkDdvS?M\\Tw?|Kn_EuX]?Byei?B]p~_?dfcw?Eu|N??Y}hC??jiJg??}YqO??V\\XC??@itV???Zzk???@N\\u_???'
p292
sS'DenBip22'
p293
S'k??????????????????????????????????????DZ`{k`\\]x}HCa^tCMqB{AAN|_LFUw?xLto?\\~L_AF|d?AYm}O?zhps?FjaR??QVwq??V}ig??szBW??^q]{??F\\Xz_??~bQc???zP|???DZsb???BesU_???'
p294
sS'DenBip23'
p295
S'm??????????????????????????????????????????N{wVWe~MTt\\a[{xHDte{?L}dIBXXf_BUJqoCglzO@]ikw?vfm[?@VW}o?Eij]??NIza??p}TE??WxH}??CrZj???^Bbs??Ae}qW??EPxr_??FP\\\\???APVzG???~[~}????'
p296
sS'C15Pow04'
p297
S'N~|xw{N@wFoNoNwF}@w'
p298
sS'C89Pow16'
p299
S'~?@X~~~~~~~~~~~~~~~~~~~~~~|~~x~~w~~{N~~@~~wF~~_N~~?N~~?F~~_@~~w?N~~??~~{?@~~w?@~~w??~~{??N~~??@~~w??F~~_??N~~???N~~???F~~_??@~~w???N~~????~~{???@~~w???@~~w????~~{????N~~????@~~w????F~~_????N~~?????N~~?????F~~_????@~~w?????N~~??????~~{?????@~~w?????@~~w??????~~{??????N~~??????@~~w??????F~~_??????N~~???????N~~???????F~~_??????@~~w???????N~~????????~~{???????@~~w???????@~~w????????~~{????????N~~????????@~~w????????F~~_????????N~~?????????N~~_????????F~~w????????@~~~?????????N~~{?????????~~~w????????@~~~w????????@~~~{?????????~~~~?????????N~~~w????????@~~~~_????????F~~~~?????????N~~~~?????????N~~~~_????????F~~~~w????????@~~~~~?????????N~~~~{?????????~~{'
p300
sS'K08K12'
p301
S'~?@_~~~~~~~~~~~_?O?c?W_FA?{CBwCFwAF{?b~?C~w?V~_?~~_?_?O?O?c?C?W_?_FA?A?{C?CBwC?CFwA?AF{?_?b~?C?C~w?O?V~_?_?~~_?_?_?O?O?O?c?C?C?W_?_?_FA?A?A?{C?C?CBwC?C?CFwA?A?AF{?_?_?b~?C?C?C~w?O?O?V~_?_?_?~~_?_?_?_?O?O?O?O?c?C?C?C?W_?_?_?_FA?A?A?A?{C?C?C?CBwC?C?C?CFwA?A?A?AF{?_?_?_?b~?C?C?C?C~w?O?O?O?V~_?_?_?_?~~_?_?_?_?_?O?O?O?O?O?c?C?C?C?C?W_?_?_?_?_FA?A?A?A?A?{C?C?C?C?CBwC?C?C?C?CFwA?A?A?A?AF{?_?_?_?_?b~?C?C?C?C?C~w?O?O?O?O?V~_?_?_?_?_?~~_?_?_?_?_?_?O?O?O?O?O?O?c?C?C?C?C?C?W_?_?_?_?_?_FA?A?A?A?A?A?{C?C?C?C?C?CBwC?C?C?C?C?CFwA?A?A?A?A?AF{?_?_?_?_?_?b~?C?C?C?C?C?C~w?O?O?O?O?O?V~_?_?_?_?_?_?~~_?_?_?_?_?_?_?O?O?O?O?O?O?O?c?C?C?C?C?C?C?W_?_?_?_?_?_?_FA?A?A?A?A?A?A?{C?C?C?C?C?C?CBwC?C?C?C?C?C?CFwA?A?A?A?A?A?AF{?_?_?_?_?_?_?b~?C?C?C?C?C?C?C~w?O?O?O?O?O?O?V~_?_?_?_?_?_?_?~~'
p302
sS'K08K11'
p303
S'~?@W~~~~~~~~~o?O@G@a?wON@@{AFwANw@N{?V~?B~{?G?G?O@G?OBC?GB`?A@wG?O^?_@B{@?ANw@?A^w?_@^{?G?^~_@?A?A?C?G?c?G?OBC?G?OFA?C?GF__@?ABwC?G?O~?O?_@F{?_@?A^w?_@?A~w?O?_@~}?C?G?O?O?_@?A?H?A?C?G@a?C?G?OFA?C?G?ON@?A?C?GN_O?_@?AFwA?C?G?P~?G?O?_@N{?O?_@?A~w?O?_@?B~{?G?O?_@?@?A?C?G?O@G?O?_@?A?W_@?A?C?GB`?A?C?G?ON@?A?C?G?O^?_@?A?C?G^_G?O?_@?ANw@?A?C?G?R~?C?G?O?_@^{?G?O?_@?B~{?G?O?_@?A?A?C?G?O?_@?C_@?A?C?G?OBC?G?O?_@?A?wO?_@?A?C?GF__@?A?C?G?O^?_@?A?C?G?O~?O?_@?A?C?G~_C?G?O?_@?A^w?_@?A?C?G?V~?A?C?G?O?_@~}?C?G?O?_@?A?A?C?G?O?_@?A?H?A?C?G?O?_@?KO?_@?A?C?G?OFA?C?G?O?_@?A@wG?O?_@?A?C?GN_O?_@?A?C?G?O~?O?_@?A?C?G?P~?G?O?_@?A?C?H~_A?C?G?O?_@?A~w?O?_@?A?C?G?^~'
p304
sS'K08K10'
p305
S'~?@O~~~~~~~{?G@GBCB`@wG^?b{@Nw@^w?~}?G?O@?H?C@a?GFA?GN@?CN_O@FwA?H~?G?n{?O@~{?O@?A?G?_C_A?GBC?O@?wO@?CF__A?G^?_A?G~?O@?C~_C?O@^w?_A?N~_A?G?_@?C?O@?H?C?O@?W_A?G?_[G?_A?GN@?C?O@BwC?O@?C^_G?_A?H~?G?_A?J~?C?O@?F~o@?C?O@?A?G?_A?G@G?_A?G?_KO@?C?O@?wO@?C?O@@wG?_A?G?`{A?G?_A?G~?O@?C?O@Nw@?C?O@?D~_A?G?_A?N~_A?G?_A?G?O@?C?O@?C?c?O@?C?O@?W_A?G?_A?GFA?G?_A?G?_{C?O@?C?O@BwC?O@?C?O@FwA?G?_A?G?f{?_A?G?_A?J~?C?O@?C?O@~{?O@?C?O@?C?G?_A?G?_A?G@G?_A?G?_A?GBC?O@?C?O@?CB`?C?O@?C?O@@wG?_A?G?_A?G^?_A?G?_A?G?b{@?C?O@?C?O@Nw@?C?O@?C?O@^w?_A?G?_A?G?~{'
p306
sS'C77Pow16'
p307
S'~?@L~~~~~~~~~~~~~~~~~~~~~~|~~x~~w~~{N~~@~~wF~~_N~~?N~~?F~~_@~~w?N~~??~~{?@~~w?@~~w??~~{??N~~??@~~w??F~~_??N~~???N~~???F~~_??@~~w???N~~????~~{???@~~w???@~~w????~~{????N~~????@~~w????F~~_????N~~?????N~~?????F~~_????@~~w?????N~~??????~~{?????@~~w?????@~~w??????~~{??????N~~??????@~~w??????F~~_??????N~~???????N~~_??????F~~w??????@~~~???????N~~{???????~~~w??????@~~~w??????@~~~{???????~~~~???????N~~~w??????@~~~~_??????F~~~~???????N~~~~???????N~~~~_??????F~~~~w??????@~~~~~???????N~~~~{???????~~{'
p308
sS'C29Pow08'
p309
S'\\~~~~~~^x~b~B~@~_^wB~?N{?^w?^w?N{?B~_?^}?@~{?B~{?B~}?@~~_?^~{?B~~o?N{'
p310
sS'C67Pow16'
p311
S'~?@B~~~~~~~~~~~~~~~~~~~~~~|~~x~~w~~{N~~@~~wF~~_N~~?N~~?F~~_@~~w?N~~??~~{?@~~w?@~~w??~~{??N~~??@~~w??F~~_??N~~???N~~???F~~_??@~~w???N~~????~~{???@~~w???@~~w????~~{????N~~????@~~w????F~~_????N~~?????N~~?????F~~_????@~~{?????N~~o?????~~~_????@~~~_????@~~~o?????~~~{?????N~~~_????@~~~}?????F~~~{?????N~~~{?????N~~~}?????F~~~~_????@~~~~{?????N~~~~o?????~~~~~_????@~~~~~_????@~~w'
p312
sS'Q2K18'
p313
S'~?@G~~~~~~~~~~~~~~~~~~~~~~~~~{??A??C_?BC??wO?F__?^?_?~?O?~_C?^w?_F~?A?~{?CB~w?CF~w?AF~{??b~~??C~~w??V~~_??~~~_?????O?????c?????W_????FA?????{C????BwC????FwA????F{?_???B~?C????~w?O???F~_?_???^~??_???~~??O???~~_?C???^~w??_??F~~??A???~~{??C??B~~w??C??C?????A??A??C???_??_?B???C??C??w???O??O?F_???_??_?^????_??_?~????O??O?~_???C??C?^w????_??_F~????A??A?~{????C??CB~w????C??CF~w????A??AF~{?????_??b~~?????C??C~~w?????O??V~~_?????_??~~~'
p314
sS'Q2K19'
p315
S'~?@K~~~~~~~~~~~~~~~~~~~~~~~~~~~~{??@??@G??W_?B`??N@??^?_?^_G?Nw@?B~?C?^{?G@~w?GB~w?CB~{?@@~~??G^~w??b~~_?@N~~??@^~~???~~~o?????A?????@G?????KO?????wO????@wG????@{A?????~?O????Nw@????@~_A????F~?A????N~?@????N~_?O???F~w?A???@~~??G???N~{??O???~~w??O??@~~w??G??@~~{??A???~~~???O??G?????@???_??_??A??@??B???A??@??F???@???_?F_???O??G?Bw???A??@??~????G??C?F{????O??G?^w????O??G?~w????G??C?~{????A??@?^~?????O??GF~w????@???_~~_????A??@B~~?????A??@F~~?????@???f~~_?????O??J~~w?????A??@~~~'
p316
sS'Q2K16'
p317
S'~?@?~~~~~~~~~~~~~~~~~~~~_?@??H??W_?[G?N@?BwC?^_G@~?GB~?CB~_@@~w?G^~??b~{?@N~w?@^~w??~~}?????O????H????@a????FA????N@????N_O???FwA???@~?G???N{?O???~w?O??@~w?G??@~{?A???~~??O??N~w?@??@~~_?A??F~~??A??G????@??C??_??O?@??W??A??G?F???G??_?{???O?@?Bw???O?@?Fw???G??_F{???A??GB~????O?@?~w???@??CF~_???A??G^~????A??G~~????@??C~~_????O?@^~w????A??N~~'
p318
sS'Q2K17'
p319
S'~?@C~~~~~~~~~~~~~~~~~~~~~~}??A??H??KO?FA?@wG?N_O?~?O@~?G@~_A?~w?ON~?@@~{?AF~w?AN~w?@N~{??V~~??B~~{?????G????@G????BC????B`????@wG????^?_???B{@????Nw@????^w?_???^{?G???N~?@???B~w?C???^~_?G??@~~??G??B~~??C??B~~_?@??@~~w??G??O?????_?@??C??@??A??W??@??A??w???_?@??{???G??O?^???@??A?Fw???C??G?~_???G??OB~????G??OF~????C??GF~_???@??AB~w????G??O~~?????_?@F~{????@??A^~w????@??A~~w?????_?@~~{'
p320
sS'Q2K14'
p321
S'w~~~~~~~~~~~~~~~o?A?@G?KO?wO@wG@{A?~?ONw@@~_AF~?AN~?@N~_?V~w?B~~_???@????H????W_???[G???N@???BwC???^_G??@~?G??B~?C??B~_@??@~w?G??^~??_?B~{?@??N~w?@??O????_?G?C??G?A?B??@??O?w??C?@?F_??G?A?^???G?A?~???C?@?~_??@??O^w???G?AF~????_?G~{???@??R~w???@??V~w????_?N~{'
p322
sS'Q2K15'
p323
S'{~~~~~~~~~~~~~~~~~{??O?C_?W_?wO?{C?^?_FwA?~_CB~?CF~?AF~_?b~w?C~~??V~{??~~{????A????C_???BC????wO???F__???^?_???~?O???~_C???^w?_??F~?A???~{?C??B~w?C??F~w?A??F~{??_?B~~??C??_????O?A??_??_?C?B???_?C?F???O?A?F_??C??_Bw???_?C?~???A??OF{???C??_^w???C??_~w???A??O~{????_?C^~????C??f~w????O?A~~_????_?F~~'
p324
sS'Q2K12'
p325
S'o~~~~~~~~~~~_?O?c?W_FA?{CBwCFwAF{?b~?C~w?V~_?~~_???O???c???W_??FA???{C??BwC??FwA??F{?_?B~?C??~w?O?F~_?_?^~??_?_???O?O?_?C?C?W??_?_F??A?A?{??C?CBw??C?CFw??A?AF{???_?b~???C?C~w???O?V~_???_?~~'
p326
sS'Q2K13'
p327
S's~~~~~~~~~~~~~_?G?H?BC?[G@wGBwCB{@@~?G^w?b~_@N~?@^~??~~o???A???@G???KO???wO??@wG??@{A???~?O??Nw@??@~_A??F~?A??N~?@??N~_?O?F~w?A?@????G?C?C??O?G?W??O?G?w??G?C?{??A?@?^???O?GFw??@??_~_??A?@B~???A?@F~???@??f~_???O?J~w???A?@~~'
p328
sS'Q2K10'
p329
S'g~~~~~~~{?G@GBCB`@wG^?b{@Nw@^w?~}???O??H??@a??FA??N@??N_O?FwA?@~?G?N{?O?~w?O@???G?_C?A?GB??O@?w?@?CF_?A?G^??A?G~??@?C~_??O@^w??A?N~'
p330
sS'Q2K11'
p331
S'k~~~~~~~~~o?O@G@a?wON@@{AFwANw@N{?V~?B~{???G??@G??BC??B`??@wG??^?_?B{@??Nw@??^w?_?^{?G?N~?@?A???C?G?_?G?OB??G?OF??C?GF_?@?ABw??G?O~???_@F{??@?A^w??@?A~w???_@~{'
p332
sS'K04K04K04'
p333
S'~?@?~`HW}GPHDaNaGPCcPWaN_?@??H??W_?[G?G@?@GC?D_G?N?GAG?C@C_@?PW?GAN??aG_?@CPG?@CPW??aG}??G??O?@??H??C?@a??G?FA??G?G@??C?C_O?@?@WA??G?N?G??_G_?O?@?PG?O?@?PW?G??_G{?A??GaG??O?@CPG?@??CPD_?A??GaN_?A??G??O?@??C??c??O?@??W_?A??G?FA??G??_?_C??O?@?@GC??O?@?@WA??G??_?{?_?A??GAG?C??O?@?PG?O?@??C@D_?_?A??GAN??_?A??GaG??O?@??CPC_?C??O?@CPW??_?A??GaN'
p334
sS'K04K04K05'
p335
S'~?@O~}AHKVB{GGPGRCJ`B{GOO`C`AW`AwO`}???O??H??@a??FA??N@??G?O?AGA??R?G?@[?O?Bw?O@A??G?`C?A?GR??O@Aw?@?CN_?ACGO??ACGP??@ACH_??O`Aw??ACG^_??G??@???O??H???O??W_??G??[G??A??N@???O?A?C??@??G_G??A??R?G??A??V?C??@??N_@???O@A??G??A?GP??_??G?`K?@???O@Aw?@???O@Bw??_??GO`???G??ACGP??@???O`AW??C??@ACJ_??G??ACG^_??G??A???O??C??@???c??@???O??W_??G??A??FA???_??G??{C??@???O?A?C??@???O?AGA???_??G?@K?_??G??A??V?C??@???O?Bw?O??C??@?CG??_??G??A?GP??_??G??A?GR??O??C??@?CJ_?C??@???O@Bw??_??G??ACGO??A???_??GO`C??C??@???O`AW??C??@???O`Aw??A???_??GO`{'
p336
sS'K04K04K06'
p337
S'~?@_~~{ACbCwV_~__OOcCW_fAA{CF{CCAAAC__bCCCwOOV___~_???O???c???W_??FA???{C??BwC??C?A??AC?_??b?C??Cw?O??V_?_??~??_?__??O?OO_?C?CCW??_?_f??A?AA{??C?CFw??CCCC???AAAAC???___b???CCCCw???OOOV_???___~_???_???O???O???c???C???W_???_??FA???A???{C???C??BwC???C??C?A???A??AC?_???_??b?C???C??Cw?O???O??V_?_???_??~??_???_?__??O???O?OO_?C???C?CCW??_???_?_f??A???A?AA{??C???C?CFw??C???CCCC???A???AAAAC???_???___b???C???CCCCw???O???OOOV_???_???___~_???_???_???O???O???O???c???C???C???W_???_???_??FA???A???A???{C???C???C??BwC???C???C??C?A???A???A??AC?_???_???_??b?C???C???C??Cw?O???O???O??V_?_???_???_??~??_???_???_?__??O???O???O?OO_?C???C???C?CCW??_???_???_?_f??A???A???A?AA{??C???C???C?CFw??C???C???CCCC???A???A???AAAAC???_???_???___b???C???C???CCCCw???O???O???OOOV_???_???_???___~'
p338
sS'K07K12'
p339
S'~?@S~~~~~~~~~~~_?O?c?W_FA?{CBwCFwAF{?b~?C~w?V~_?~~_?_?O?O?c?C?W_?_FA?A?{C?CBwC?CFwA?AF{?_?b~?C?C~w?O?V~_?_?~~_?_?_?O?O?O?c?C?C?W_?_?_FA?A?A?{C?C?CBwC?C?CFwA?A?AF{?_?_?b~?C?C?C~w?O?O?V~_?_?_?~~_?_?_?_?O?O?O?O?c?C?C?C?W_?_?_?_FA?A?A?A?{C?C?C?CBwC?C?C?CFwA?A?A?AF{?_?_?_?b~?C?C?C?C~w?O?O?O?V~_?_?_?_?~~_?_?_?_?_?O?O?O?O?O?c?C?C?C?C?W_?_?_?_?_FA?A?A?A?A?{C?C?C?C?CBwC?C?C?C?CFwA?A?A?A?AF{?_?_?_?_?b~?C?C?C?C?C~w?O?O?O?O?V~_?_?_?_?_?~~_?_?_?_?_?_?O?O?O?O?O?O?c?C?C?C?C?C?W_?_?_?_?_?_FA?A?A?A?A?A?{C?C?C?C?C?CBwC?C?C?C?C?CFwA?A?A?A?A?AF{?_?_?_?_?_?b~?C?C?C?C?C?C~w?O?O?O?O?O?V~_?_?_?_?_?_?~~'
p340
sS'K07K13'
p341
S'~?@Z~~~~~~~~~~~~~_?G?H?BC?[G@wGBwCB{@@~?G^w?b~_@N~?@^~??~~o?G?A?@?@G?C?KO?G?wO?G@wG?C@{A?@?~?O?GNw@??`~_A?@F~?A?@N~?@??n~_?O?N~{?A?@??O?G?C?C_?O?G?W_?O?G?wO?G?C?{C?A?@?^?_?O?GFwA?@??_~_C?A?@B~?C?A?@F~?A?@??f~_?_?O?J~w?C?A?@~~_?O?G?C?@??_?O?G?H??_?O?G?W_?O?G?C?[G?C?A?@?N@??_?O?GBwC?A?@??_^_G?C?A?@@~?G?C?A?@B~?C?A?@??b~_@??_?O?H~w?G?C?A?@^~??_?O?G?F~}?@??_?O?G?A?@??_?O?G?H??_?O?G?C?KO?G?C?A?@?FA?@??_?O?G@wG?C?A?@??_N_O?G?C?A?@?~?O?G?C?A?@@~?G?C?A?@??`~_A?@??_?O?G~w?O?G?C?A?@N~?@??_?O?G?D~{?A?@??_?O?N~{?A?@??_?O?G?A?@??_?O?G?C?C_?O?G?C?A?@?BC?A?@??_?O?G?wO?G?C?A?@??_F__?O?G?C?A?@?^?_?O?G?C?A?@?~?O?G?C?A?@??_~_C?A?@??_?O?G^w?_?O?G?C?A?@F~?A?@??_?O?G?C~{?C?A?@??_?O?J~w?C?A?@??_?O?N~w'
p342
sS'K07K10'
p343
S'~?@E~~~~~~~{?G@GBCB`@wG^?b{@Nw@^w?~}?G?O@?H?C@a?GFA?GN@?CN_O@FwA?H~?G?n{?O@~{?O@?A?G?_C_A?GBC?O@?wO@?CF__A?G^?_A?G~?O@?C~_C?O@^w?_A?N~_A?G?_@?C?O@?H?C?O@?W_A?G?_[G?_A?GN@?C?O@BwC?O@?C^_G?_A?H~?G?_A?J~?C?O@?F~o@?C?O@?A?G?_A?G@G?_A?G?_KO@?C?O@?wO@?C?O@@wG?_A?G?`{A?G?_A?G~?O@?C?O@Nw@?C?O@?D~_A?G?_A?N~_A?G?_A?G?O@?C?O@?C?c?O@?C?O@?W_A?G?_A?GFA?G?_A?G?_{C?O@?C?O@BwC?O@?C?O@FwA?G?_A?G?f{?_A?G?_A?J~?C?O@?C?O@~w'
p344
sS'K07K11'
p345
S'~?@L~~~~~~~~~o?O@G@a?wON@@{AFwANw@N{?V~?B~{?G?G?O@G?OBC?GB`?A@wG?O^?_@B{@?ANw@?A^w?_@^{?G?^~_@?A?A?C?G?c?G?OBC?G?OFA?C?GF__@?ABwC?G?O~?O?_@F{?_@?A^w?_@?A~w?O?_@~}?C?G?O?O?_@?A?H?A?C?G@a?C?G?OFA?C?G?ON@?A?C?GN_O?_@?AFwA?C?G?P~?G?O?_@N{?O?_@?A~w?O?_@?B~{?G?O?_@?@?A?C?G?O@G?O?_@?A?W_@?A?C?GB`?A?C?G?ON@?A?C?G?O^?_@?A?C?G^_G?O?_@?ANw@?A?C?G?R~?C?G?O?_@^{?G?O?_@?B~{?G?O?_@?A?A?C?G?O?_@?C_@?A?C?G?OBC?G?O?_@?A?wO?_@?A?C?GF__@?A?C?G?O^?_@?A?C?G?O~?O?_@?A?C?G~_C?G?O?_@?A^w?_@?A?C?G?V~?A?C?G?O?_@~{'
p346
sS'K07K14'
p347
S'~?@a~~~~~~~~~~~~~~~o?A?@G?KO?wO@wG@{A?~?ONw@@~_AF~?AN~?@N~_?V~w?B~~_?G?@??O?H??O?W_?G?[G?A?N@??OBwC?@?^_G?A@~?G?AB~?C?@B~_@??P~w?G?A^~??_?J~{?@??^~{?@??O?A??_?G?C_?G?A?BC?@??O?wO?C?@?F__?G?A?^?_?G?A?~?O?C?@?~_C?@??O^w?_?G?AF~?A??_?G~{?C?@??R~w?C?@??V~w?A??_?N~}??_?G?A??O?C?@??O?H??O?C?@?@a??_?G?A?FA??_?G?A?N@??O?C?@?N_O?C?@??OFwA??_?G?A@~?G?A??_?GN{?O?C?@??O~w?O?C?@??P~w?G?A??_?H~{?A??_?G?A~~??O?C?@??^~{?@??O?C?@??G?A??_?G?A?@G?A??_?G?A?BC?@??O?C?@?B`??O?C?@??O@wG?A??_?G?A?^?_?G?A??_?GB{@??O?C?@??ONw@??O?C?@??O^w?_?G?A??_?G^{?G?A??_?G?AN~?@??O?C?@??R~w?C?@??O?C?@^~_?G?A??_?G?B~~_?G?A??_?G?A??O?C?@??O?C?@??c?@??O?C?@??O?W_?G?A??_?G?A?FA??_?G?A??_?G?{C?@??O?C?@??OBwC?@??O?C?@??OFwA??_?G?A??_?GF{?_?G?A??_?G?AB~?C?@??O?C?@??O~w?O?C?@??O?C?@F~_?_?G?A??_?G?A^~??_?G?A??_?G?A~~??O?C?@??O?C?@~~_'
p348
sS'C90Pow16'
p349
S'~?@Y~~~~~~~~~~~~~~~~~~~~~~|~~x~~w~~{N~~@~~wF~~_N~~?N~~?F~~_@~~w?N~~??~~{?@~~w?@~~w??~~{??N~~??@~~w??F~~_??N~~???N~~???F~~_??@~~w???N~~????~~{???@~~w???@~~w????~~{????N~~????@~~w????F~~_????N~~?????N~~?????F~~_????@~~w?????N~~??????~~{?????@~~w?????@~~w??????~~{??????N~~??????@~~w??????F~~_??????N~~???????N~~???????F~~_??????@~~w???????N~~????????~~{???????@~~w???????@~~w????????~~{????????N~~????????@~~w????????F~~_????????N~~?????????N~~?????????F~~o????????@~~}?????????N~~w?????????~~~o????????@~~~o????????@~~~w?????????~~~}?????????N~~~o????????@~~~~?????????F~~~}?????????N~~~}?????????N~~~~?????????F~~~~o????????@~~~~}?????????N~~~~w?????????~~~~~o????????@~~w'
p350
sS'C33Pow08'
p351
S'`~~~~~~^x~b~B~@~_^wB~?N{?^w?^w?N{?B~??^w?@~_?B~??B~_?@~w??^~??B~{??N~w??^~w??^~{??N~~??B~'
p352
sS'C34Pow08'
p353
S'a~~~~~~^x~b~B~@~_^wB~?N{?^w?^w?N{?B~??^w?@~_?B~??B~??@~o??^}??B~w??N~o??^~o??^~w??N~}??B~~o??^w'
p354
sS'K03K04K07'
p355
S'~?@S~~~{@@GWb`N@^?~oGA@@GCKOGwOHwGD{A@~_OGA@?_cA@BCA@FA@?f__OJwCA@~_???@????H????W_???[G???N@???BwC???^_G??@??G??@@?C???`_@???Gw?G??@N??_??D{?@???Nw?@??OG???_?GCC??G?A@B??@??OGw??C?@?f_??G?A@^???G?A@~???CA@?_???@?_OGG???GCA@B????_OGC[???@?_OHw???@?_OJw????_OGF}????G????O???@????H????C???@a????G???FA????G???N@????C???N_O???@???FwA????G??@??G????_??CC?O???@???GW?O???@???Gw?G????_??C{?A????G??@^??O???@???Nw?@????C?@?_??A????G?A@@??A????G?A@B??@????C?@?b_??O???@??OHw??A????G?A@^???G????_?GF{???O???@?_OG????O???@?_OGG???G????_OGCK???A????GCA@F????O???@?_OHw???@????CA@?n_???A????GCA@~'
p356
sS'K03K04K06'
p357
S'~?@G~~{ACbCwV_~__OOcCW_fAA{CF{CCAAAC__bCCCwOOV___~_???O???c???W_??FA???{C??BwC??C?A??AC?_??b?C??Cw?O??V_?_??~??_?__??O?OO_?C?CCW??_?_f??A?AA{??C?CFw??CCCC???AAAAC???___b???CCCCw???OOOV_???___~_???_???O???O???c???C???W_???_??FA???A???{C???C??BwC???C??C?A???A??AC?_???_??b?C???C??Cw?O???O??V_?_???_??~??_???_?__??O???O?OO_?C???C?CCW??_???_?_f??A???A?AA{??C???C?CFw??C???CCCC???A???AAAAC???_???___b???C???CCCCw???O???OOOV_???_???___~'
p358
sS'K03K04K05'
p359
S'{~}AHKVB{GGPGRCJ`B{GOO`C`AW`AwO`}???O??H??@a??FA??N@??G?O?AGA??R?G?@[?O?Bw?O@A??G?`C?A?GR??O@Aw?@?CN_?ACGO??ACGP??@ACH_??O`Aw??ACG^_??G??@???O??H???O??W_??G??[G??A??N@???O?A?C??@??G_G??A??R?G??A??V?C??@??N_@???O@A??G??A?GP??_??G?`K?@???O@Aw?@???O@Bw??_??GO`???G??ACGP??@???O`AW??C??@ACJ_??G??ACG^'
p360
sS'K03K04K04'
p361
S'o~`HW}GPHDaNaGPCcPWaN_?@??H??W_?[G?G@?@GC?D_G?N?GAG?C@C_@?PW?GAN??aG_?@CPG?@CPW??aG}??G??O?@??H??C?@a??G?FA??G?G@??C?C_O?@?@WA??G?N?G??_G_?O?@?PG?O?@?PW?G??_G{?A??GaG??O?@CPG?@??CPD_?A??GaN'
p362
sS'Q5'
p363
S'_r`HOm?OH@ABAG@C_POAJ_?@??H??O_?KG?G@?@GC?D?G?J?GA??C@?_@?OO?GAB??_G_?@?PG?@?PO??_Gk'
p364
sS'Q4'
p365
S'Or`HOm?OH@ABAG@C_POAJ'
p366
sS'Q7'
p367
S'~?A?r`HOm?OH@ABAG@C_POAJ_?@??H??O_?KG?G@?@GC?D?G?J?GA??C@?_@?OO?GAB??_G_?@?PG?@?PO??_Gm?????O????H????@A????BA????G@????C_O???@OA????J?G???G??O???OG?O???OO?G???GK?A???AG??O???PG?@???@D??A???AJ??A??G????@??C??_??O?@??O??A??G?B???G??_?_???O?@?@G???O?@?@O???G??_?k???A??GA?????O?@?OG???@??C@@????A??GAB????A??GAG????@??C@C_????O?@?PO????A??GAJ_?????????@??????????H??????????O_?????????KG?????????G@?????????@GC?????????D?G?????????J?G????????A??C????????@?_@?????????OO?G????????AB??_????????G_?@?????????PG?@?????????PO??_????????Gk??G???????G????@???????@??G??C???????C?@???G???????G?B???G???????G?G???C???????C?C_??@???????@?@O???G???????G?J????_???????_G????@???????@?OG???@???????@?OO????_???????_GK????G???????GAG????@???????@?PG????C???????C@D?????G???????GAJ?????G????A??????????C????@?????_????@?????O????O?????G????A????B??????_????G????_?????@?????O???@G?????@?????O???@O??????_????G????k??????G????A???A???????@?????O???OG??????C????@???@@???????G????A???AB???????G????A???AG???????C????@???@C_??????@?????O???PO???????G????A???AJ????????_????G??_?????????@?????O?@??G???????@?????O?@??O????????_????G??_?K????????G????A??G?G????????@?????O?@?@G????????C????@??C?D?????????G????A??G?J?????????G????A??GA??????????C????@??C@?_????????@?????O?@?OO?????????G????A??GAB??????????_????G??_G_?????????@?????O?@?PG?????????@?????O?@?PO??????????_????G??_Gk'
p368
sS'Q6'
p369
S'~?@?r`HOm?OH@ABAG@C_POAJ_?@??H??O_?KG?G@?@GC?D?G?J?GA??C@?_@?OO?GAB??_G_?@?PG?@?PO??_Gm?????O????H????@A????BA????G@????C_O???@OA????J?G???G??O???OG?O???OO?G???GK?A???AG??O???PG?@???@D??A???AJ??A??G????@??C??_??O?@??O??A??G?B???G??_?_???O?@?@G???O?@?@O???G??_?k???A??GA?????O?@?OG???@??C@@????A??GAB????A??GAG????@??C@C_????O?@?PO????A??GAJ'
p370
sS'K03K04K08'
p371
S'~?@_~~~~}?OH@aFAN@N_VwB~_G@?OH?OW_G[GAN@?RwC@^_GB~_GA?OC@?c@?OW_GAFA?_G{C@?RwC@?VwA?_N}?????O????H????@a????FA????N@????N_O???FwA???@~?G???G??O???OG?O???OW?G???G[?A???AN??O???Rw?@???@^_?A???B~??A??GA???@??C@?_??O?@?OW??A??GAF???G??_G{???O?@?Rw???O?@?Vw???G??_N{???A?_GA?????OC@?OG???@?OC@@_???A?_GAF????A?_GAN????@?OC@N_????OC@?Vw????A?_GB~_????G????@?????O????H?????O????W_????G????[G????A????N@?????O???BwC????@????^_G????A???@~?G????A???A??C????@???@?_@?????O???OW?G????A???AF??_????G???G{?@?????O???Rw?@?????O???Vw??_????G???N{??G????A??GA???@?????O?@?OG??C????@??C@@_??G????A??GAF???G????A??GAN???C????@??C@N_??@?????O?@?Vw???G????A??GB~????_????GA?_G????@?????OC@?OG???@?????OC@?OW????_????GA?_G[????G????A?_GAN????@?????OC@?Rw????C????@?OC@^_????G????A?_GB~'
p372
sS'K09K09'
p373
S'~?@P~~~~~~_A?cBCFAF_bwC~?V{?~{?_A?OC_CBC?_wOAF__C^?_C~?OA~_C?~{?_C?OA?OC_C?_W_C?_wOA?O{C?_C^?_C?fwA?OA~_C?_F~_C?_C?OA?OA?c?_C?_W_C?_CFA?OA?O{C?_C?bwC?_C?fwA?OA?V{?_C?_F~_C?_C?_A?OA?OA?c?_C?_CBC?_C?_CFA?OA?OAF__C?_C?bwC?_C?_C~?OA?OA?V{?_C?_C?~{?_C?_C?_A?OA?OA?OC_C?_C?_CBC?_C?_C?_wOA?OA?OAF__C?_C?_C^?_C?_C?_C~?OA?OA?OA~_C?_C?_C?~{?_C?_C?_C?OA?OA?OA?OC_C?_C?_C?_W_C?_C?_C?_wOA?OA?OA?O{C?_C?_C?_C^?_C?_C?_C?fwA?OA?OA?OA~_C?_C?_C?_F~_C?_C?_C?_C?OA?OA?OA?OA?c?_C?_C?_C?_W_C?_C?_C?_CFA?OA?OA?OA?O{C?_C?_C?_C?bwC?_C?_C?_C?fwA?OA?OA?OA?V{?_C?_C?_C?_F~'
p374
sS'C63Pow16'
p375
S'~??~~~~~~~~~~~~~~~~~~~~~~~|~~x~~w~~{N~~@~~wF~~_N~~?N~~?F~~_@~~w?N~~??~~{?@~~w?@~~w??~~{??N~~??@~~w??F~~_??N~~???N~~???F~~_??@~~w???N~~????~~{???@~~w???@~~w????~~{????N~~????@~~w????F~~o????N~~o????N~~w????F~~}????@~~~o????N~~~?????~~~}????@~~~}????@~~~~?????~~~~o????N~~~}????@~~~~w????F~~~~o????N~~~~o????N~~~~w????F~~~~}????@~~w'
p376
sS'C92Pow16'
p377
S'~?@[~~~~~~~~~~~~~~~~~~~~~~|~~x~~w~~{N~~@~~wF~~_N~~?N~~?F~~_@~~w?N~~??~~{?@~~w?@~~w??~~{??N~~??@~~w??F~~_??N~~???N~~???F~~_??@~~w???N~~????~~{???@~~w???@~~w????~~{????N~~????@~~w????F~~_????N~~?????N~~?????F~~_????@~~w?????N~~??????~~{?????@~~w?????@~~w??????~~{??????N~~??????@~~w??????F~~_??????N~~???????N~~???????F~~_??????@~~w???????N~~????????~~{???????@~~w???????@~~w????????~~{????????N~~????????@~~w????????F~~_????????N~~?????????N~~?????????F~~_????????@~~w?????????N~~_?????????~~~?????????@~~~?????????@~~~_?????????~~~w?????????N~~~?????????@~~~{?????????F~~~w?????????N~~~w?????????N~~~{?????????F~~~~?????????@~~~~w?????????N~~~~_?????????~~~~~?????????@~~~~~?????????@~~~~~_?????????~~{'
p378
sS'K20'
p379
S'S~~~~~~~~~~~~~~~~~~~~~~~~~~~~~~~{'
p380
sS'C98Pow16'
p381
S'~?@a~~~~~~~~~~~~~~~~~~~~~~|~~x~~w~~{N~~@~~wF~~_N~~?N~~?F~~_@~~w?N~~??~~{?@~~w?@~~w??~~{??N~~??@~~w??F~~_??N~~???N~~???F~~_??@~~w???N~~????~~{???@~~w???@~~w????~~{????N~~????@~~w????F~~_????N~~?????N~~?????F~~_????@~~w?????N~~??????~~{?????@~~w?????@~~w??????~~{??????N~~??????@~~w??????F~~_??????N~~???????N~~???????F~~_??????@~~w???????N~~????????~~{???????@~~w???????@~~w????????~~{????????N~~????????@~~w????????F~~_????????N~~?????????N~~?????????F~~_????????@~~w?????????N~~??????????~~{?????????@~~w?????????@~~w??????????~~{??????????N~~??????????@~~{??????????F~~w??????????N~~w??????????N~~{??????????F~~~??????????@~~~w??????????N~~~_??????????~~~~??????????@~~~~??????????@~~~~_??????????~~~~w??????????N~~~~??????????@~~~~{??????????F~~~~w??????????N~~~~w??????????N~~~~{??????????F~~_'
p382
sS'LemK09'
p383
S'~?@G~~~~~~_A?cBCFAF_bwC~?V{?~{??A??C_?BC??wO?F__?^?_?~?O?~_C?^w?_???A??C?C??W?C??w?A??{??_?^??C?Fw??O?~_??_B~???_C????OA?_??C?_W???_CF???A?O{???C?bw???C?fw???A?V{????_F~???_C?????A?O??_??C?_?B???C?_?F???A?O?F_???_C?Bw???C?_?~????OA?F{????_C?^w??C?_??????A?O???C???_C???B???C?_???w???OA???F_???_C???^????_C???~????OA???~_???C?_??^w????_C?_C?????A?OA?OC????C?_C?_W????C?_C?_w????A?OA?O{?????_C?_C^?????C?_C?fw?????OA?OA~_?????_C?_F~'
p384
sS'LemK08'
p385
S'~?@?~~~~}?OH@aFAN@N_VwB~_?@??H??W_?[G?N@?BwC?^_G@~?G???C??_@??W?G?F??_?{?@?Bw?@?Fw??_F{??GA???@?OG??C@@_??GAF???GAN???C@N_??@?Vw???GB~??A?_????C@??G??C@??W??A?_?[???_G?N???C@?Bw???OC?^_???_G@~??A?_?????@?O???_??OC???W??A?_??F???GA???{???OC??Bw???OC??Fw???GA??F{???A?_GA?????OC@?OG???@?OC@@_???A?_GAF????A?_GAN????@?OC@N_????OC@?Vw????A?_GB~'
p386
sS'C95Pow16'
p387
S'~?@^~~~~~~~~~~~~~~~~~~~~~~|~~x~~w~~{N~~@~~wF~~_N~~?N~~?F~~_@~~w?N~~??~~{?@~~w?@~~w??~~{??N~~??@~~w??F~~_??N~~???N~~???F~~_??@~~w???N~~????~~{???@~~w???@~~w????~~{????N~~????@~~w????F~~_????N~~?????N~~?????F~~_????@~~w?????N~~??????~~{?????@~~w?????@~~w??????~~{??????N~~??????@~~w??????F~~_??????N~~???????N~~???????F~~_??????@~~w???????N~~????????~~{???????@~~w???????@~~w????????~~{????????N~~????????@~~w????????F~~_????????N~~?????????N~~?????????F~~_????????@~~w?????????N~~??????????~~{?????????@~~w?????????@~~{??????????~~~??????????N~~w?????????@~~~_?????????F~~~??????????N~~~??????????N~~~_?????????F~~~w?????????@~~~~??????????N~~~{??????????~~~~w?????????@~~~~w?????????@~~~~{??????????~~~~~??????????N~~~~w?????????@~~~~~_?????????F~~_'
p388
sS'LemK06'
p389
S'o~~{ACbCwV_~_?O?c?W_FA?{CBwC??A?C?_B?C?w?OF_?_^??__??OO_?CCW??_f??AA{??CFw?CC???AA?C??__B??CC?w??OOF_??__^??__????OO??_?CC??W??__?F??AA??{??CC?Bw??CCCC???AAAAC???___b???CCCCw???OOOV_???___~'
p390
sS'LemK05'
p391
S'g~}AHKVB{?G@GBCB`@wG??_C@?W@?w?_{?GO?@AG?CH_?GV??G^?AC???`?G?CGB??O_[??`@w?O_???GO?C?AC?B??O_?w?@A?F_?ACGO??ACGP??@ACH_??O`Aw??ACG^'
p392
sS'LemK04'
p393
S'_~`HW}?OH@aFA?@?_OWAF?G_?PG?PW?G{?a??COG?P@_?aF?G_??CO?_@C?W?G_F??aG_?@CPG?@CPW??aG{'
p394
sS'LemK03'
p395
S'W{S{ACbC?O_b?c?Q_CwC_?QC?cWC_?AOC?cB?Cc_?QQ_?cf'
p396
sS'LemK02'
p397
S'Or`H?cI@WS?hA_@O_TOAj'
p398
sS'C49Pow08'
p399
S'p~~~~~~^x~b~B~@~_^wB~?N{?^w?^w?N{?B~??^w?@~_?B~??B~??@~_??^w??B~???N{???^w???^w???N{???B~????^w???@~_???B~????B~????@~_????^w????B~?????N}?????^}?????^~?????N~o????B~}?????^~w????@~~o????B~~o????B~'
p400
sS'C05C05'
p401
S'XheAHCPBGG?P?P?G_BG?O?@C?AG?AG?@e??OO?AH??Ga??PA??X'
p402
sS'Q4K03'
p403
S'o{S{ACbC_Q_f_?O?c?W_CA?SC?wCC?AAC?_b?CC_?OQ_?_f_???O???c???W_??CA???SC???wC??C?A??AC?_??b?C??C_?O??Q_?_??f??_?_???O?O?_?C?C?W??_?_C??A?A?S??C?C?w??C?CC???A?AAC???_?_b???C?CC_???O?OQ_???_?_f'
p404
sS'C41Pow08'
p405
S'h~~~~~~^x~b~B~@~_^wB~?N{?^w?^w?N{?B~??^w?@~_?B~??B~??@~_??^w??B~???N{???^w???^w???N{???B~_???^}???@~{???B~{???B~}???@~~_???^~{???B~~o???N{'
p406
sS'Q4K06'
p407
S'~?@_~~{ACbCwV_~_?O?c?W_FA?{CBwCC?AAC?_b?CCw?OV_?_~_???O???c???W_??FA???{C??BwC??C?A??AC?_??b?C??Cw?O??V_?_??~??_?_???O?O?_?C?C?W??_?_F??A?A?{??C?CBw??C?CC???A?AAC???_?_b???C?CCw???O?OV_???_?_~_???????O???????c???????W_??????FA???????{C??????BwC??????C?A??????AC?_??????b?C??????Cw?O??????V_?_??????~??_?????_???O?????O?_?C?????C?W??_?????_F??A?????A?{??C?????CBw??C?????CC???A?????AAC???_?????_b???C?????CCw???O?????OV_???_?????_~????_???_???????O???O???_???C???C???W????_???_??F????A???A???{????C???C??Bw????C???C??C?????A???A??AC?????_???_??b?????C???C??Cw?????O???O??V_?????_???_??~??????_???_?_???????O???O?O?_?????C???C?C?W??????_???_?_F??????A???A?A?{??????C???C?CBw??????C???C?CC???????A???A?AAC???????_???_?_b???????C???C?CCw???????O???O?OV_???????_???_?_~'
p408
sS'Q4K05'
p409
S'~?@O~}AHKVB{?G@GBCB`@wGO?`C@AW@Aw?`}???O??H??@a??FA??N@??G?O?AGA??R?G?@[?O?Bw?O@???G?_C?A?GB??O@?w?@?CF_?A?GO??A?GP??@?CH_??O@Aw??A?G^_?????@??????H??????W_?????[G?????N@?????A?C?????G_G?????R?G?????V?C?????N_@????@???G????G@??_????_K?@????@?w?@????@@w??_????`???G????GP??@????@AW??C????CJ_??G????G^???G??A??????C??@???_??@???O??W???G??A??F????_??G??{???@???O?A????@???O?AG????_??G?@K????G??A??V????@???O?Bw????C??@?C??????G??A?G@?????G??A?GB?????C??@?CB_????@???O@@w?????G??A?GO??????_??G?`C?????@???O@AW?????@???O@Aw??????_??G?`{'
p410
sS'Q4K04'
p411
S'~?@?~`HW}?OH@aFAG@C_PWAN_?@??H??W_?[G?G@?@GC?D_G?N?GA??C@?_@?OW?GAF??_G_?@?PG?@?PW??_G}?????O????H????@a????FA????G@????C_O???@WA????N?G???G??O???OG?O???OW?G???G[?A???AG??O???PG?@???@D_?A???AN??A??G????@??C??_??O?@??W??A??G?F???G??_?_???O?@?@G???O?@?@W???G??_?{???A??GA?????O?@?OG???@??C@@_???A??GAF????A??GAG????@??C@C_????O?@?PW????A??GAN'
p412
sS'C62Pow16'
p413
S'}~~~~~~~~~~~~~~~~~~~~~~|~~x~~w~~{N~~@~~wF~~_N~~?N~~?F~~_@~~w?N~~??~~{?@~~w?@~~w??~~{??N~~??@~~w??F~~_??N~~???N~~???F~~_??@~~w???N~~????~~{???@~~w???@~~w????~~{????N~~????@~~{????F~~w????N~~w????N~~{????F~~~????@~~~w????N~~~_????~~~~????@~~~~????@~~~~_????~~~~w????N~~~~????@~~~~{????F~~~~w????N~~~~w????N~~~~{????F~~_'
p414
sS'PetK10'
p415
S'~?@c~~~~~~~{?G@GBCB`@wG^?b{@Nw@^w?~{?G??@?G?C@_?GF??GN??CN_?@Fw??H~???n{??@~w??@?????_C???GB???@?w???CF_???G^????G~????C~_???@^w????N~_????_@????@?H????@?W_????_[G????GN@????@BwC????C^_G????H~?G????J~?C????F~o???????A???????@G???????KO???????wO??????@wG??????@{A???????~?O??????Nw@??????@~_A??????F~?A?????????@????????_?O???????W?A???????F??G???????{??O??????Bw??O??????Fw??G??????F{??A??????B~???O??????~w??@????@??????A????A??@???A????A??B???@????@??B_???O????O?@w???A????A??^????G????G?B{????O????O?Nw????O????O?^w????G????G?^{????A???_A????????O??C?O??G????@???O@??@_????A???_A??F?????A???_A??N?????@???O@??N_?????O??C?O?Fw?????A???_A?@~??????G??A?G?N{??????O??C?O?~w??????O??C?O?????????G??A?G??C??????A???_A??B???????O??C?O??w??????@???O@??F_??????A???_A??^???????A???_A??~???????@???O@??~_???????O??C?O?^w???????A???_A?F~'
p416
sS'C47Pow08'
p417
S'n~~~~~~^x~b~B~@~_^wB~?N{?^w?^w?N{?B~??^w?@~_?B~??B~??@~_??^w??B~???N{???^w???^w???N{???B~????^w???@~_???B~????B~????@~_????^{????B~o????N~_????^~_????^~o????N~{????B~~_????^~}????@~_'
p418
sS'C16Pow04'
p419
S'O~|xw{N@wF_N_NoF{@~_N'
p420
sS'C99Pow16'
p421
S'~?@b~~~~~~~~~~~~~~~~~~~~~~|~~x~~w~~{N~~@~~wF~~_N~~?N~~?F~~_@~~w?N~~??~~{?@~~w?@~~w??~~{??N~~??@~~w??F~~_??N~~???N~~???F~~_??@~~w???N~~????~~{???@~~w???@~~w????~~{????N~~????@~~w????F~~_????N~~?????N~~?????F~~_????@~~w?????N~~??????~~{?????@~~w?????@~~w??????~~{??????N~~??????@~~w??????F~~_??????N~~???????N~~???????F~~_??????@~~w???????N~~????????~~{???????@~~w???????@~~w????????~~{????????N~~????????@~~w????????F~~_????????N~~?????????N~~?????????F~~_????????@~~w?????????N~~??????????~~{?????????@~~w?????????@~~w??????????~~{??????????N~~??????????@~~w??????????F~~o??????????N~~o??????????N~~w??????????F~~}??????????@~~~o??????????N~~~???????????~~~}??????????@~~~}??????????@~~~~???????????~~~~o??????????N~~~}??????????@~~~~w??????????F~~~~o??????????N~~~~o??????????N~~~~w??????????F~~~~}??????????@~~w'
p422
sS'C83Pow16'
p423
S'~?@R~~~~~~~~~~~~~~~~~~~~~~|~~x~~w~~{N~~@~~wF~~_N~~?N~~?F~~_@~~w?N~~??~~{?@~~w?@~~w??~~{??N~~??@~~w??F~~_??N~~???N~~???F~~_??@~~w???N~~????~~{???@~~w???@~~w????~~{????N~~????@~~w????F~~_????N~~?????N~~?????F~~_????@~~w?????N~~??????~~{?????@~~w?????@~~w??????~~{??????N~~??????@~~w??????F~~_??????N~~???????N~~???????F~~_??????@~~w???????N~~????????~~{???????@~~w???????@~~{????????~~~????????N~~w???????@~~~_???????F~~~????????N~~~????????N~~~_???????F~~~w???????@~~~~????????N~~~{????????~~~~w???????@~~~~w???????@~~~~{????????~~~~~????????N~~~~w???????@~~~~~_???????F~~_'
p424
sS'C18Pow04'
p425
S'Q~|xw{N@wF_N?N?Fo@}?Nw?~o@w'
p426
sS'Pet'
p427
S'IheA@GUAo'
p428
sS'W08'
p429
S'GhCKN{'
p430
sS'W09'
p431
S'HhCGKF~'
p432
sS'W05'
p433
S'Dl{'
p434
sS'W06'
p435
S'Ehfw'
p436
sS'W07'
p437
S'FhENw'
p438
sS'C05K10'
p439
S'q~~~~~~~{?G@GBCB`@wG^?b{@Nw@^w?~{?G??@?G?C@_?GF??GN??CN_?@Fw??H~???n{??@~w??@?????_C???GB???@?w???CF_???G^????G~????C~_???@^w????N~_????_@????@?H????@?W_????_[G????GN@????@BwC????C^_G????H~?G????J~?C????F~_'
p440
sS'C05K11'
p441
S'v~~~~~~~~~o?O@G@a?wON@@{AFwANw@N{?V~?B~w?G???O@??OB??GB_?A@w??O^??@B{??ANw??A^w??@^{???^~???A?????G?_???OB????OF????GF_???ABw????O~????@F{????A^w????A~w????@~}?????O?O????A?H?????G@a?????OFA?????ON@?????GN_O????AFwA?????P~?G????@N{?O????A~w?O????B~w'
p442
sS'C05K12'
p443
S'{~~~~~~~~~~~_?O?c?W_FA?{CBwCFwAF{?b~?C~w?V~_?~~??_???O?_?C?W??_F??A?{??CBw??CFw??AF{???b~???C~w???V~_???~~????_?????O?_???C?W????_F????A?{????CBw????CFw????AF{?????b~?????C~w?????V~_?????~~_?????_?O?????O?c?????C?W_?????_FA?????A?{C?????CBwC?????CFwA?????AF{?_?????b~?C?????C~w?O?????V~_?_?????~~'
p444
sS'C05K13'
p445
S'~?@@~~~~~~~~~~~~~_?G?H?BC?[G@wGBwCB{@@~?G^w?b~_@N~?@^~??~~_?G???@?@??C?K??G?w??G@w??C@{??@?~???GNw???`~_??@F~???@N~????n~_???N~w???@??????C?C????G?W????G?w????C?{????@?^?????GFw?????_~_????@B~?????@F~??????f~_?????J~w?????@~~_?????C?@??????G?H??????G?W_?????C?[G?????@?N@??????GBwC??????_^_G?????@@~?G?????@B~?C??????b~_@??????H~w?G?????@^~??_?????F~{'
p446
sS'C05K14'
p447
S'~?@E~~~~~~~~~~~~~~~o?A?@G?KO?wO@wG@{A?~?ONw@@~_AF~?AN~?@N~_?V~w?B~~??G????O?G??O?W??G?[??A?N???OBw??@?^_??A@~???AB~???@B~_???P~w???A^~????J~{????^~w????O??????G?C????A?B?????O?w????@?F_????A?^?????A?~?????@?~_?????O^w?????AF~??????G~{??????R~w??????V~w??????N~}??????A??O??????O?H??????@?@a??????A?FA??????A?N@??????@?N_O??????OFwA??????A@~?G??????GN{?O??????O~w?O??????P~w?G??????H~{?A??????A~~??O??????^~w'
p448
sS'C05K15'
p449
S'~?@J~~~~~~~~~~~~~~~~~{??O?C_?W_?wO?{C?^?_FwA?~_CB~?CF~?AF~_?b~w?C~~??V~{??~~w??_????O?C??C?B???_?w??A?F_??C?^???C?~???A?~_???_^w???CF~????O~{????b~w????f~w????V~{????F~~?????_??????A??_????C?B?????C?F?????A?F_?????_Bw?????C?~??????OF{??????_^w??????_~w??????O~{??????C^~???????f~w??????A~~_??????F~~_??????C??O??????A??c???????_?W_??????C?FA???????O?{C???????_BwC???????_FwA???????OF{?_??????CB~?C???????_~w?O??????AF~_?_??????C^~??_??????C~~??O??????A~~_?C???????~~w'
p450
sS'C05K16'
p451
S'~?@O~~~~~~~~~~~~~~~~~~~~_?@??H??W_?[G?N@?BwC?^_G@~?GB~?CB~_@@~w?G^~??b~{?@N~w?@^~w??~~{??G????@??G??C?@_??G?F???G?N???C?N_??@?Fw???G@~????_N{???@?~w???@@~w????`~{????G~~????@N~w????D~~_????N~~?????G???????C??_????@??W?????G?F??????_?{?????@?Bw?????@?Fw??????_F{??????GB~??????@?~w??????CF~_??????G^~???????G~~???????C~~_??????@^~w???????N~~_???????_?@???????@??H???????@??W_???????_?[G???????G?N@???????@?BwC???????C?^_G???????G@~?G???????GB~?C???????CB~_@???????@@~w?G???????G^~??_???????b~{?@???????@N~w?@???????@^~w??_???????~~{'
p452
sS'C05K17'
p453
S'~?@T~~~~~~~~~~~~~~~~~~~~~~}??A??H??KO?FA?@wG?N_O?~?O@~?G@~_A?~w?ON~?@@~{?AF~w?AN~w?@N~{??V~~??B~~w??G?????O?@???O?B???G?B_??A?@w???O?^???@?B{???A?Nw???A?^w???@?^{????ON~????AB~w????G^~_????P~~?????R~~?????J~~_????B~~w?????O???????@??C?????A??W?????A??w?????@??{??????O?^??????A?Fw??????G?~_??????OB~???????OF~???????GF~_??????AB~w???????O~~???????@F~{???????A^~w???????A~~w???????@~~}????????O??O???????A??H????????G?@a????????O?FA????????O?N@????????G?N_O???????A?FwA????????O@~?G???????@?N{?O???????A?~w?O???????A@~w?G???????@@~{?A????????O~~??O???????AN~w?@????????H~~_?A????????V~~??A????????^~~'
p454
sS'C05K18'
p455
S'~?@Y~~~~~~~~~~~~~~~~~~~~~~~~~{??A??C_?BC??wO?F__?^?_?~?O?~_C?^w?_F~?A?~{?CB~w?CF~w?AF~{??b~~??C~~w??V~~_??~~~???_?????O??_??C??W???_?F???A??{???C?Bw???C?Fw???A?F{????_B~????C?~w????OF~_????_^~?????_~~?????O~~_????C^~w?????f~~?????A~~{?????F~~w?????C????????A??C??????_?B??????C??w??????O?F_??????_?^???????_?~???????O?~_??????C?^w???????_F~???????A?~{???????CB~w???????CF~w???????AF~{????????b~~????????C~~w????????V~~_????????~~~_????????_??O????????O??c????????C??W_????????_?FA????????A??{C????????C?BwC????????C?FwA????????A?F{?_????????_B~?C????????C?~w?O????????OF~_?_????????_^~??_????????_~~??O????????O~~_?C????????C^~w??_????????f~~??A????????A~~{??C????????F~~w'
p456
sS'C05K19'
p457
S'~?@^~~~~~~~~~~~~~~~~~~~~~~~~~~~~{??@??@G??W_?B`??N@??^?_?^_G?Nw@?B~?C?^{?G@~w?GB~w?CB~{?@@~~??G^~w??b~~_?@N~~??@^~~???~~~_??G?????@??@???C??K???G??w???G?@w???C?@{???@??~????G?Nw????_@~_???@?F~????@?N~?????_N~_????GF~w????@@~~?????CN~{?????G~~w?????H~~w?????D~~{?????@~~~??????G?????????_??_?????@??B??????@??F???????_?F_??????G?Bw??????@??~???????C?F{???????G?^w???????G?~w???????C?~{???????@?^~????????GF~w????????_~~_???????@B~~????????@F~~?????????f~~_????????J~~w????????@~~~_????????C??@?????????G??H?????????G??W_????????C??[G????????@??N@?????????G?BwC?????????_?^_G????????@?@~?G????????@?B~?C?????????_B~_@?????????G@~w?G????????@?^~??_????????CB~{?@?????????GN~w?@?????????G^~w??_????????C^~{??G????????@N~~??@?????????J~~w??C?????????~~~_'
p458
sS'K02K19'
p459
S'e~~~~~~~~~~~~~~~~~~~~~~~~~~~~{??@??@G??W_?B`??N@??^?_?^_G?Nw@?B~?C?^{?G@~w?GB~w?CB~{?@@~~??G^~w??b~~_?@N~~??@^~~???~~~_'
p460
sS'K02K18'
p461
S'c~~~~~~~~~~~~~~~~~~~~~~~~~{??A??C_?BC??wO?F__?^?_?~?O?~_C?^w?_F~?A?~{?CB~w?CF~w?AF~{??b~~??C~~w??V~~_??~~~'
p462
sS'K02K15'
p463
S']~~~~~~~~~~~~~~~~~{??O?C_?W_?wO?{C?^?_FwA?~_CB~?CF~?AF~_?b~w?C~~??V~{??~~w'
p464
sS'K03K03K06'
p465
S'u~~{ACbCwV_~__OOcCW_fAA{CF{??A??C_?BC??wO?F__?^?_?_?O?O_C?CW?_?f?A?A{?C?Fw?CCC??AAAC??__b??CCCw??OOV_??__~_??_??O??O??c??C??W_??_?FA??A??{C??C?BwC??C?C?A??A?AC?_??_?b?C??C?Cw?O??O?V_?_??_?~??_??___??O??OOO_?C??CCCW??_??__f??A??AAA{??C??CCFw'
p466
sS'K02K17'
p467
S'a~~~~~~~~~~~~~~~~~~~~~~}??A??H??KO?FA?@wG?N_O?~?O@~?G@~_A?~w?ON~?@@~{?AF~w?AN~w?@N~{??V~~??B~~w'
p468
sS'K02K16'
p469
S'_~~~~~~~~~~~~~~~~~~~~_?@??H??W_?[G?N@?BwC?^_G@~?GB~?CB~_@@~w?G^~??b~{?@N~w?@^~w??~~{'
p470
sS'K02K11'
p471
S'U~~~~~~~~~o?O@G@a?wON@@{AFwANw@N{?V~?B~w'
p472
sS'K02K10'
p473
S'S~~~~~~~{?G@GBCB`@wG^?b{@Nw@^w?~{'
p474
sS'K02K13'
p475
S'Y~~~~~~~~~~~~~_?G?H?BC?[G@wGBwCB{@@~?G^w?b~_@N~?@^~??~~_'
p476
sS'K02K12'
p477
S'W~~~~~~~~~~~_?O?c?W_FA?{CBwCFwAF{?b~?C~w?V~_?~~'
p478
sS'C91Pow16'
p479
S'~?@Z~~~~~~~~~~~~~~~~~~~~~~|~~x~~w~~{N~~@~~wF~~_N~~?N~~?F~~_@~~w?N~~??~~{?@~~w?@~~w??~~{??N~~??@~~w??F~~_??N~~???N~~???F~~_??@~~w???N~~????~~{???@~~w???@~~w????~~{????N~~????@~~w????F~~_????N~~?????N~~?????F~~_????@~~w?????N~~??????~~{?????@~~w?????@~~w??????~~{??????N~~??????@~~w??????F~~_??????N~~???????N~~???????F~~_??????@~~w???????N~~????????~~{???????@~~w???????@~~w????????~~{????????N~~????????@~~w????????F~~_????????N~~?????????N~~?????????F~~_????????@~~{?????????N~~o?????????~~~_????????@~~~_????????@~~~o?????????~~~{?????????N~~~_????????@~~~}?????????F~~~{?????????N~~~{?????????N~~~}?????????F~~~~_????????@~~~~{?????????N~~~~o?????????~~~~~_????????@~~~~~_????????@~~w'
p480
sS'K03K03K04'
p481
S'c~`HW}GPHDaN_?O?c?W_FA?_C@GC@WA?{?aG?CPG?PD_?aN_?_?O?O?c?C?W_?_FA?A?_C?C@GC?C@WA?A?{?_?aG?C?CPG?O?PD_?_?aN'
p482
sS'C25Pow08'
p483
S'X~~~~~~^x~b~B~@~_^wB~?N}?^}?^~?N~oB~}?^~w@~~oB~~oB~'
p484
sS'DenBip38'
p485
S'~?@K?????????????????????????????????????????????????????????????????????????????????????????????????????????????????????]pmC]lAbMh\\{ETL{vJg`|OC\\mtE{yXJQcBPur[|w?LY^d]E?]g}zTv_CjDuhbs?NMwH]mw?zyZLWGO?w`vwHJo?V}[qB}_?CPNlTtI??OnjUe{O?@|Ao`{n??DBzLGmi??C{}RkaK??@JCle}x???i|faxuO??BHtv^NU???Q]TeXQw???PZNraRo???o}C~O}_???^RcxTxg???FfIKkP{????fzRkPF????@F{gZOv????@\\RFuPe????CQ\\ZgzS?????]u\\ZiC?????mG[B|VO????B|Qz|zO?????TAmY~pW?????h~Lae}_?????d}Hm}}_?????Z_~YGhg?????BL]Hb]E??????'
p486
sS'DenBip37'
p487
S'~?@I???????????????????????????????????????????????????????????????????????????????????????????????????????????????ytfFeq]Jp[pbdpVMZx?kaam]ybp||^r}Bnuph|wEAE}tMsBuvM[|a?SSuJ\\y_E|Ir}J[??xv{\\c_?J~}x}v??mPtmIw_?NxCuDtO?D{}Jw@g??B^y}b@_?BR}QOq{??D[g|Fc[??B\\xA]mw???]Hpl^S???\\]N}qF_??AZ^NrOC???TT^pEUO???xRbN_z????sb[|hz_???PVelKzo???@kzKTro????][Uf\\C_???AjXvDsE????EMLcMxw????EzMS|Us?????gzf^Fo?????Y{Qkrr?????FulG[qc?????Jc~jJM_?????FILX{m_?????z[Kx|L???????'
p488
sS'DenBip36'
p489
S'~?@G?????????????????????????????????????????????????????????????????????????????????????????????????????????S|ip|PoRN[[mHRhwvyD{TepAwL{Wyx`AzgjxxoCrKPivwB[mb][?@F}kSrk?LdVga}?Aqd^cxO?^]ssgf_?tT^knb??{NeJ@l??Vc~R``??@{vM{v???_pkb|r??BkwDd}c??FPJNfT_??BQM}Edg??A~@^DhO???Yi^f]^????j}c^KG???AcJVyZ_???`YYuNY????tMZMQu?????vqJqf_???FzyhR}W????MUw]j\\????@uvov[W????CMKJtew????F^f]|\\G?????in[VwG?????qrP[|K?????AAXyq^o?????ZzBAQm_?????'
p490
sS'C31Pow08'
p491
S'^~~~~~~^x~b~B~@~_^wB~?N{?^w?^w?N{?B~??^w?@~o?B~o?B~w?@~}??^~o?B~~??N~}??^~}??^w'
p492
sS'DenBip34'
p493
S'~?@C?????????????????????????????????????????????????????????????????????????????????????????????Elof_{s{v`\\g[}R}}WcftkSw\\HnepcFMI\\to_XZvils?ncbfUODbsEbu_EzoUJt?Bw@vygo?fMZSEk?A[NtPM_?TFmmDe??vUaht_??EX}\\ww??^W]HEe???wK}fN???Z_uNck??@J{K\\Yo??B^hOW^???@h|y\\A????iE}K^_???c}VNqC???ErHXFe_???SCgzvk????\\QSftS????zm}pI{????]RSy}o????CtcVYJ_????|}gNyO????AEm`^LO????@mnRbR?????BP}mML??????'
p494
sS'DenBip33'
p495
S'~?@A????????????????????????????????????????????????????????????????????????????????????????qHWw~jKt{^YRwTytOU}VP{gvstuK_VpzQQoDzTZm_?ZTzKwG?E|zI~?BCB}t~?EA^V}A?AmS`~V_?FmqBMw?Aest|B??Cb|vPc??^\\V@UW??}z|jPw??OKjmNw??Bc}ZNZ???|LH}rG??AZdShy_??F|\\FRS???EzoVxn???Auhm?^_???iKujt_???@Nl`lZ????^MafBc????rut_Z_????Vij|`?????AzApx{????ApmQ]u?????hZLT|O????ApVxpZ??????'
p496
sS'DenBip32'
p497
S'~?@???????????????????????????????????????????????????????????????????????????????????Bq^AaZYkUrZ`QMie}Ufcquo}Sh^n_Dq[^aoR}[IwGFnjBw{?jbu^Q?@EhmmU?F]wkLq??nMuRa?BDd{Zg??H^Jlt_??KE|\\]??ZjTZlg??U{Yrq_??|iuaY???Ni]NMG??Eane`e???|ZZhko??@R^XgF???A|wmiu???C}T|}Y???Agz[LT????CXnyX_???@pyjci????^KOffO????D|}{|o????iFzO^_????Lp_Utw????EY[\\qa?????'
p498
sS'DenBip31'
p499
S'}?????????????????????????????????????????????????????????????????????????????D~Zo\\TmRxXWs|s~]fb]HMc?b|vV?JSyo^_~xvup?QB[rvOBJOZ\\k?bPJw~?AHmsva?CykJn_?B|Xeps?Bz}zz[??z~ZPm_?A{~LCW??YzIZ`_??l]\\Zx_??WI^|X_??Kibe|o??@dUUyk???Pueg}_??BruA|a???Btte^[???CslJg{????Yf}qg????q{WVu????@xYyak????^bb}K_????cxirR_????xiuj`??????'
p500
sS'DenBip30'
p501
S'{????????????????????????????????????????????????????????????????????????@M~gDWVnRFRIj]p[kFmXhAxUNx_H^MlK?~yJld?^P[{M?RqA|x?ENJq}??~]wej?@mRjS[?E@s|io?DIiUZW?@vWzWs??vn]]M??BuU[t???W\\yEL_??JbEns???k~`Gt???Oktk{_??BfMXWo???ZBXvT???AjuPvk???DwQ}}W???C~ckBo???@`uzN[????UtHil????Da^I[w????]Ybz_?????'
p502
sS'C81Pow16'
p503
S'~?@P~~~~~~~~~~~~~~~~~~~~~~|~~x~~w~~{N~~@~~wF~~_N~~?N~~?F~~_@~~w?N~~??~~{?@~~w?@~~w??~~{??N~~??@~~w??F~~_??N~~???N~~???F~~_??@~~w???N~~????~~{???@~~w???@~~w????~~{????N~~????@~~w????F~~_????N~~?????N~~?????F~~_????@~~w?????N~~??????~~{?????@~~w?????@~~w??????~~{??????N~~??????@~~w??????F~~_??????N~~???????N~~???????F~~_??????@~~w???????N~~????????~~}???????@~~}???????@~~~????????~~~o???????N~~}???????@~~~w???????F~~~o???????N~~~o???????N~~~w???????F~~~}???????@~~~~o???????N~~~~????????~~~~}???????@~~~~}???????@~~~~~????????~~~~~o???????N~~'
p504
sS'K13'
p505
S'L~~~~~~~~~~~~~'
p506
sS'K12'
p507
S'K~~~~~~~~~~~'
p508
sS'K11'
p509
S'J~~~~~~~~~_'
p510
sS'K10'
p511
S'I~~~~~~~w'
p512
sS'K17'
p513
S'P~~~~~~~~~~~~~~~~~~~~~~{'
p514
sS'K16'
p515
S'O~~~~~~~~~~~~~~~~~~~~'
p516
sS'K15'
p517
S'N~~~~~~~~~~~~~~~~~w'
p518
sS'K14'
p519
S'M~~~~~~~~~~~~~~~_'
p520
sS'C24Pow08'
p521
S'W~~~~~~^x~b~B~@~_^wB~_N~?^~?^~_N~wB~~?^~{@~~wB~'
p522
sS'K19'
p523
S'R~~~~~~~~~~~~~~~~~~~~~~~~~~~~w'
p524
sS'K18'
p525
S'Q~~~~~~~~~~~~~~~~~~~~~~~~~w'
p526
sS'Q3'
p527
S'Gr`HOk'
p528
sS'Q2'
p529
S'Cr'
p530
sS'DenBip35'
p531
S'~?@E???????????????????????????????????????????????????????????????????????????????????????????????????@~?{ytjoqK{y^tWY|G^tXATpAuVQ~v_`~dvwG@S{AJ^wDUPVUpoFYrlGroAFFHrLw?c]mvhG?FBljXf_?JNLoNL??`J[nxa??MhDvLe??Vu}dVW??DxUVzgO??Dl|_pm??Bq|NudW??DZfzbu???ErFgp^_??BNVXXIG???vt|kv}???Bcs{[z????MDjlta????X^Ioim????JbflUE????WN^VAq????F}cV]Y_????H^ZPa]????@pW}bRw????AtF}~No????E|ZygQo????BXce{~O?????IbbZ\\i??????'
p532
sS'C85Pow16'
p533
S'~?@T~~~~~~~~~~~~~~~~~~~~~~|~~x~~w~~{N~~@~~wF~~_N~~?N~~?F~~_@~~w?N~~??~~{?@~~w?@~~w??~~{??N~~??@~~w??F~~_??N~~???N~~???F~~_??@~~w???N~~????~~{???@~~w???@~~w????~~{????N~~????@~~w????F~~_????N~~?????N~~?????F~~_????@~~w?????N~~??????~~{?????@~~w?????@~~w??????~~{??????N~~??????@~~w??????F~~_??????N~~???????N~~???????F~~_??????@~~w???????N~~????????~~{???????@~~w???????@~~w????????~~{????????N~~_???????@~~}????????F~~{????????N~~{????????N~~}????????F~~~_???????@~~~{????????N~~~o????????~~~~_???????@~~~~_???????@~~~~o????????~~~~{????????N~~~~_???????@~~~~}????????F~~~~{????????N~~~~{????????N~~'
p534
sS'C86Pow16'
p535
S'~?@U~~~~~~~~~~~~~~~~~~~~~~|~~x~~w~~{N~~@~~wF~~_N~~?N~~?F~~_@~~w?N~~??~~{?@~~w?@~~w??~~{??N~~??@~~w??F~~_??N~~???N~~???F~~_??@~~w???N~~????~~{???@~~w???@~~w????~~{????N~~????@~~w????F~~_????N~~?????N~~?????F~~_????@~~w?????N~~??????~~{?????@~~w?????@~~w??????~~{??????N~~??????@~~w??????F~~_??????N~~???????N~~???????F~~_??????@~~w???????N~~????????~~{???????@~~w???????@~~w????????~~{????????N~~????????@~~{????????F~~w????????N~~w????????N~~{????????F~~~????????@~~~w????????N~~~_????????~~~~????????@~~~~????????@~~~~_????????~~~~w????????N~~~~????????@~~~~{????????F~~~~w????????N~~~~w????????N~~~~{????????F~~_'
p536
sS'C40Pow08'
p537
S'g~~~~~~^x~b~B~@~_^wB~?N{?^w?^w?N{?B~??^w?@~_?B~??B~??@~_??^w??B~???N{???^w???^w???N}???B~o???^~???@~}???B~}???B~~???@~~o???^~}???B~'
p538
sS'C37Pow08'
p539
S'd~~~~~~^x~b~B~@~_^wB~?N{?^w?^w?N{?B~??^w?@~_?B~??B~??@~_??^w??B~???N}???^}???^~???N~o??B~}???^~w??@~~o??B~~o??B~'
p540
sS'C88Pow16'
p541
S'~?@W~~~~~~~~~~~~~~~~~~~~~~|~~x~~w~~{N~~@~~wF~~_N~~?N~~?F~~_@~~w?N~~??~~{?@~~w?@~~w??~~{??N~~??@~~w??F~~_??N~~???N~~???F~~_??@~~w???N~~????~~{???@~~w???@~~w????~~{????N~~????@~~w????F~~_????N~~?????N~~?????F~~_????@~~w?????N~~??????~~{?????@~~w?????@~~w??????~~{??????N~~??????@~~w??????F~~_??????N~~???????N~~???????F~~_??????@~~w???????N~~????????~~{???????@~~w???????@~~w????????~~{????????N~~????????@~~w????????F~~_????????N~~_????????N~~o????????F~~{????????@~~~_????????N~~}?????????~~~{????????@~~~{????????@~~~}?????????~~~~_????????N~~~{????????@~~~~o????????F~~~~_????????N~~~~_????????N~~~~o????????F~~~~{????????@~~~~~_????????N~~'
p542
sS'Q2K20'
p543
S'~?@O~~~~~~~~~~~~~~~~~~~~~~~~~~~~~~~}???O??H??@a??FA??N@??N_O?FwA?@~?G?N{?O?~w?O@~w?G@~{?A?~~??ON~w?@@~~_?AF~~??AN~~??@N~~_??V~~w??B~~~_?????@??????H??????W_?????[G?????N@?????BwC?????^_G????@~?G????B~?C????B~_@????@~w?G????^~??_???B~{?@????N~w?@????^~w??_???^~{??G???N~~??@???B~~w??C???^~~_??G??@~~~???G??A??????C??@???_??@???O??W???G??A??F????_??G??{???@???O?Bw???@???O?Fw????_??G?F{????G??A?B~????@???O?~w????C??@?F~_????G??A?^~?????G??A?~~?????C??@?~~_????@???O^~w?????G??AF~~??????_??G~~{?????@???R~~w?????@???V~~w??????_??N~~{'
p544
sS'K07K09'
p545
S'~??~~~~~~~_A?cBCFAF_bwC~?V{?~{?_A?OC_CBC?_wOAF__C^?_C~?OA~_C?~{?_C?OA?OC_C?_W_C?_wOA?O{C?_C^?_C?fwA?OA~_C?_F~_C?_C?OA?OA?c?_C?_W_C?_CFA?OA?O{C?_C?bwC?_C?fwA?OA?V{?_C?_F~_C?_C?_A?OA?OA?c?_C?_CBC?_C?_CFA?OA?OAF__C?_C?bwC?_C?_C~?OA?OA?V{?_C?_C?~{?_C?_C?_A?OA?OA?OC_C?_C?_CBC?_C?_C?_wOA?OA?OAF__C?_C?_C^?_C?_C?_C~?OA?OA?OA~_C?_C?_C?~w'
p546
sS'K07K08'
p547
S'w~~~~}?OH@aFAN@N_VwB~_G@?OH?OW_G[GAN@?RwC@^_GB~_GA?OC@?c@?OW_GAFA?_G{C@?RwC@?VwA?_N}?_GA?OC@?OH?OC@@a?_GAFA?_GAN@?OC@N_OC@?VwA?_GB~_GA?_G@?OC@?OH?OC@?OW_GA?_G[GA?_GAN@?OC@?RwC@?OC@^_GA?_GB~_GA?_GA?OC@?OC@?c@?OC@?OW_GA?_GAFA?_GA?_G{C@?OC@?RwC@?OC@?VwA?_GA?_N{'
p548
sS'C57Pow08'
p549
S'x~~~~~~^x~b~B~@~_^wB~?N{?^w?^w?N{?B~??^w?@~_?B~??B~??@~_??^w??B~???N{???^w???^w???N{???B~????^w???@~_???B~????B~????@~_????^w????B~?????N{?????^w?????^w?????N{?????B~??????^w?????@~_?????B~??????B~_?????@~w??????^~??????B~{??????N~w??????^~w??????^~{??????N~~??????B~'
p550
sS'K05K20'
p551
S'~?@c~~~~~~~~~~~~~~~~~~~~~~~~~~~~~~~}???O??H??@a??FA??N@??N_O?FwA?@~?G?N{?O?~w?O@~w?G@~{?A?~~??ON~w?@@~~_?AF~~??AN~~??@N~~_??V~~w??B~~~_??G??@???O??H???O??W_??G??[G??A??N@???O?BwC??@??^_G??A?@~?G??A?B~?C??@?B~_@???O@~w?G??A?^~??_??GB~{?@???ON~w?@???O^~w??_??G^~{??G??AN~~??@???R~~w??C??@^~~_??G??B~~~_??G??A???O??C??@???c??@???O??W_??G??A??FA???_??G??{C??@???O?BwC??@???O?FwA???_??G?F{?_??G??A?B~?C??@???O?~w?O??C??@?F~_?_??G??A?^~??_??G??A?~~??O??C??@?~~_?C??@???O^~w??_??G??AF~~??A???_??G~~{??C??@???R~~w??C??@???V~~w??A???_??N~~}???_??G??A???O??C??@???O??H???O??C??@??@a???_??G??A??FA???_??G??A??N@???O??C??@??N_O??C??@???O?FwA???_??G??A?@~?G??A???_??G?N{?O??C??@???O?~w?O??C??@???O@~w?G??A???_??G@~{?A???_??G??A?~~??O??C??@???ON~w?@???O??C??@@~~_?A???_??G??AF~~??A???_??G??AN~~??@???O??C??@N~~_??O??C??@???V~~w??A???_??G??B~~~'
p552
sS'K07K07'
p553
S'p~~~{@@GWb`N@^?~oGA@@GCKOGwOHwGD{A@~_OGA@?_cA@BCA@FA@?f__OJwCA@~_OGC@?_OGH?_OGW_OGC[GCA@N@?_OJwCA@?~oGCA@?OGCA@@GCA@?`a@?_OGwOGCA@N@?_OGD{A@?_ON{A@?_OGA@?_OGCC_OGCA@BCA@?_OGwOGCA@?f__OGCA@^?_OGCA@~'
p554
sS'C39Pow08'
p555
S'f~~~~~~^x~b~B~@~_^wB~?N{?^w?^w?N{?B~??^w?@~_?B~??B~??@~_??^w??B~???N{???^w???^{???N~???B~w???^~_??@~~???B~~???B~~_??@~~w???^w'
p556
sS'K05K19'
p557
S'~?@^~~~~~~~~~~~~~~~~~~~~~~~~~~~~{??@??@G??W_?B`??N@??^?_?^_G?Nw@?B~?C?^{?G@~w?GB~w?CB~{?@@~~??G^~w??b~~_?@N~~??@^~~???~~~o??G??A??@??@G??C??KO??G??wO??G?@wG??C?@{A??@??~?O??G?Nw@???_@~_A??@?F~?A??@?N~?@???_N~_?O??GF~w?A??@@~~??G??CN~{??O??G~~w??O??H~~w??G??D~~{??A??@~~~_??O??G??A??@???_??c??A??@??BC??A??@??FA??@???_?F__??O??G?BwC??A??@??~?O??G??C?F{?_??O??G?^w?_??O??G?~w?O??G??C?~{?C??A??@?^~??_??O??GF~w?A??@???_~~_?C??A??@B~~??C??A??@F~~??A??@???f~~_??_??O??J~~w??C??A??@~~~_??O??G??C??@???_??O??G??H???_??O??G??W_??O??G??C??[G??C??A??@??N@???_??O??G?BwC??A??@???_?^_G??C??A??@?@~?G??C??A??@?B~?C??A??@???_B~_@???_??O??G@~w?G??C??A??@?^~??_??O??G??CB~{?@???_??O??GN~w?@???_??O??G^~w??_??O??G??C^~{??G??C??A??@N~~??@???_??O??J~~w??C??A??@???~~~_'
p558
sS'C46Pow08'
p559
S'm~~~~~~^x~b~B~@~_^wB~?N{?^w?^w?N{?B~??^w?@~_?B~??B~??@~_??^w??B~???N{???^w???^w???N{???B~????^w???@~_???B~????B~????@~o????^}????B~w????N~o????^~o????^~w????N~}????B~~o????^w'
p560
sS'Q2K04K06'
p561
S'~?@_r`HOmGPHDAJaGPCcPOaJaG`CPHCPOaGmGaGPCPHCPDAGaJ_???O???c???O_??BA???_C??@GC??@OA???k?_?AG?C??PG?O?@D??_?AJ??_?aG??O?PC_?C?CPO??_?aJ??A?aG_??C@CPG??C@CPO??A?aGk???aGaG???CPCPG???PCPD????aGaJ_???_???O???O???c???C???O_???_??BA???A???_C???C??@GC???C??@OA???A???k?_???_?AG?C???C??PG?O???O?@D??_???_?AJ??_???_?aG??O???O?PC_?C???C?CPO??_???_?aJ??A???A?aG_??C???C@CPG??C???C@CPO??A???A?aGk???_???aGaG???C???CPCPG???O???PCPD????_???aGaJ_???_???_???O???O???O???c???C???C???O_???_???_??BA???A???A???_C???C???C??@GC???C???C??@OA???A???A???k?_???_???_?AG?C???C???C??PG?O???O???O?@D??_???_???_?AJ??_???_???_?aG??O???O???O?PC_?C???C???C?CPO??_???_???_?aJ??A???A???A?aG_??C???C???C@CPG??C???C???C@CPO??A???A???A?aGk???_???_???aGaG???C???C???CPCPG???O???O???PCPD????_???_???aGaJ'
p562
sS'Q2K04K05'
p563
S'~?@Or`HOmGPHDAJaGPCcPOaJaG`CPHCPOaGm???O??H??@A??BA??G@??C_O?@OA??J?G?G_?O?PG?O?PO?G?Gk?A?aG??OCPG?@?PD??A?aJ??AGaG??@CPC_??PCPO??AGaJ_??G??@???O??H???O??O_??G??KG??A??G@???O?@GC??@??D?G??A??J?G??A?AG?C??@?@C_@???O?PO?G??A?AJ??_??GAG_?@???OCPG?@???OCPO??_??GAGk??G??AGaG??@???PCPG??C??@CPD???G??AGaJ_??G??A???O??C??@???c??@???O??O_??G??A??BA???_??G??_C??@???O?@GC??@???O?@OA???_??G??k?_??G??A?AG?C??@???O?PG?O??C??@?@D??_??G??A?AJ??_??G??A?aG??O??C??@?PC_?C??@???OCPO??_??G??A?aJ??A???_??GaG_??C??@???PCPG??C??@???PCPO??A???_??GaGk'
p564
sS'Q2K04K04'
p565
S'~?@?r`HOmGPHDAJaGPCcPOaJ_?@??H??O_?KG?G@?@GC?D?G?J?GAG?C@C_@?PO?GAJ??aG_?@CPG?@CPO??aGm??G??O?@??H??C?@A??G?BA??G?G@??C?C_O?@?@OA??G?J?G??_G_?O?@?PG?O?@?PO?G??_Gk?A??GaG??O?@CPG?@??CPD??A??GaJ_?A??G??O?@??C??c??O?@??O_?A??G?BA??G??_?_C??O?@?@GC??O?@?@OA??G??_?k?_?A??GAG?C??O?@?PG?O?@??C@D??_?A??GAJ??_?A??GaG??O?@??CPC_?C??O?@CPO??_?A??GaJ'
p566
sS'C32Pow08'
p567
S'_~~~~~~^x~b~B~@~_^wB~?N{?^w?^w?N{?B~??^w?@~_?B~_?B~o?@~{??^~_?B~}??N~{??^~{??^~}??N{'
p568
sS'Q2K04'
p569
S'O~`HW}?OH@aFAG@C_PWAN'
p570
sS'C38Pow08'
p571
S'e~~~~~~^x~b~B~@~_^wB~?N{?^w?^w?N{?B~??^w?@~_?B~??B~??@~_??^w??B~???N{???^{???^}???N~_??B~{???^~o??@~~_??B~~_??B~~o??@~_'
p572
sS'K04K08'
p573
S'_~~~~}?OH@aFAN@N_VwB~_G@?OH?OW_G[GAN@?RwC@^_GB~_GA?OC@?c@?OW_GAFA?_G{C@?RwC@?VwA?_N{'
p574
sS'K04K09'
p575
S'c~~~~~~_A?cBCFAF_bwC~?V{?~{?_A?OC_CBC?_wOAF__C^?_C~?OA~_C?~{?_C?OA?OC_C?_W_C?_wOA?O{C?_C^?_C?fwA?OA~_C?_F~'
p576
sS'C84Pow16'
p577
S'~?@S~~~~~~~~~~~~~~~~~~~~~~|~~x~~w~~{N~~@~~wF~~_N~~?N~~?F~~_@~~w?N~~??~~{?@~~w?@~~w??~~{??N~~??@~~w??F~~_??N~~???N~~???F~~_??@~~w???N~~????~~{???@~~w???@~~w????~~{????N~~????@~~w????F~~_????N~~?????N~~?????F~~_????@~~w?????N~~??????~~{?????@~~w?????@~~w??????~~{??????N~~??????@~~w??????F~~_??????N~~???????N~~???????F~~_??????@~~w???????N~~????????~~{???????@~~w???????@~~w????????~~}????????N~~o???????@~~~????????F~~}????????N~~}????????N~~~????????F~~~o???????@~~~}????????N~~~w????????~~~~o???????@~~~~o???????@~~~~w????????~~~~}????????N~~~~o???????@~~~~~????????F~~~~}????????N~~'
p578
sS'K06K06'
p579
S'c~~{ACbCwV_~__OOcCW_fAA{CF{CCAAAC__bCCCwOOV___~____OOOOcCCCW___fAAAA{CCCF{CCCCAAAAAC____bCCCCCwOOOOV_____~'
p580
sS'K06K07'
p581
S'i~~~{@@GWb`N@^?~oGA@@GCKOGwOHwGD{A@~_OGA@?_cA@BCA@FA@?f__OJwCA@~_OGC@?_OGH?_OGW_OGC[GCA@N@?_OJwCA@?~oGCA@?OGCA@@GCA@?`a@?_OGwOGCA@N@?_OGD{A@?_ONw'
p582
sS'C68Pow16'
p583
S'~?@C~~~~~~~~~~~~~~~~~~~~~~|~~x~~w~~{N~~@~~wF~~_N~~?N~~?F~~_@~~w?N~~??~~{?@~~w?@~~w??~~{??N~~??@~~w??F~~_??N~~???N~~???F~~_??@~~w???N~~????~~{???@~~w???@~~w????~~{????N~~????@~~w????F~~_????N~~?????N~~?????F~~_????@~~w?????N~~_?????~~~?????@~~~?????@~~~_?????~~~w?????N~~~?????@~~~{?????F~~~w?????N~~~w?????N~~~{?????F~~~~?????@~~~~w?????N~~~~_?????~~~~~?????@~~~~~?????@~~~~~_?????~~{'
p584
sS'K06K08'
p585
S'o~~~~}?OH@aFAN@N_VwB~_G@?OH?OW_G[GAN@?RwC@^_GB~_GA?OC@?c@?OW_GAFA?_G{C@?RwC@?VwA?_N}?_GA?OC@?OH?OC@@a?_GAFA?_GAN@?OC@N_OC@?VwA?_GB~_GA?_G@?OC@?OH?OC@?OW_GA?_G[GA?_GAN@?OC@?RwC@?OC@^_GA?_GB~'
p586
sS'K06K09'
p587
S'u~~~~~~_A?cBCFAF_bwC~?V{?~{?_A?OC_CBC?_wOAF__C^?_C~?OA~_C?~{?_C?OA?OC_C?_W_C?_wOA?O{C?_C^?_C?fwA?OA~_C?_F~_C?_C?OA?OA?c?_C?_W_C?_CFA?OA?O{C?_C?bwC?_C?fwA?OA?V{?_C?_F~_C?_C?_A?OA?OA?c?_C?_CBC?_C?_CFA?OA?OAF__C?_C?bwC?_C?_C~?OA?OA?V{?_C?_C?~w'
p588
sS'K04K04'
p589
S'O~`HW}GPHDaNaGPCcPWaN'
p590
sS'K04K05'
p591
S'S~}AHKVB{GGPGRCJ`B{GOO`C`AW`AwO`{'
p592
sS'K04K06'
p593
S'W~~{ACbCwV_~__OOcCW_fAA{CF{CCAAAC__bCCCwOOV___~'
p594
sS'K04K07'
p595
S'[~~~{@@GWb`N@^?~oGA@@GCKOGwOHwGD{A@~_OGA@?_cA@BCA@FA@?f__OJwCA@~'
p596
sS'C66Pow16'
p597
S'~?@A~~~~~~~~~~~~~~~~~~~~~~|~~x~~w~~{N~~@~~wF~~_N~~?N~~?F~~_@~~w?N~~??~~{?@~~w?@~~w??~~{??N~~??@~~w??F~~_??N~~???N~~???F~~_??@~~w???N~~????~~{???@~~w???@~~w????~~{????N~~????@~~w????F~~_????N~~?????N~~?????F~~o????@~~}?????N~~w?????~~~o????@~~~o????@~~~w?????~~~}?????N~~~o????@~~~~?????F~~~}?????N~~~}?????N~~~~?????F~~~~o????@~~~~}?????N~~~~w?????~~~~~o????@~~w'
p598
sS'C78Pow16'
p599
S'~?@M~~~~~~~~~~~~~~~~~~~~~~|~~x~~w~~{N~~@~~wF~~_N~~?N~~?F~~_@~~w?N~~??~~{?@~~w?@~~w??~~{??N~~??@~~w??F~~_??N~~???N~~???F~~_??@~~w???N~~????~~{???@~~w???@~~w????~~{????N~~????@~~w????F~~_????N~~?????N~~?????F~~_????@~~w?????N~~??????~~{?????@~~w?????@~~w??????~~{??????N~~??????@~~w??????F~~_??????N~~???????N~~???????F~~o??????@~~}???????N~~w???????~~~o??????@~~~o??????@~~~w???????~~~}???????N~~~o??????@~~~~???????F~~~}???????N~~~}???????N~~~~???????F~~~~o??????@~~~~}???????N~~~~w???????~~~~~o??????@~~w'
p600
sS'Q2K05K05'
p601
S'~?@cr`HOmGPHDAJaGPCcPOaJaG`CPHCPOaGm???O??H??@A??BA??G@??C_O?@OA??J?G?G_?O?PG?O?PO?G?Gk?A?aG??OCPG?@?PD??A?aJ??AGaG??@CPC_??PCPO??AGaJ_??G??@???O??H???O??O_??G??KG??A??G@???O?@GC??@??D?G??A??J?G??A?AG?C??@?@C_@???O?PO?G??A?AJ??_??GAG_?@???OCPG?@???OCPO??_??GAGk??G??AGaG??@???PCPG??C??@CPD???G??AGaJ_??G??A???O??C??@???c??@???O??O_??G??A??BA???_??G??_C??@???O?@GC??@???O?@OA???_??G??k?_??G??A?AG?C??@???O?PG?O??C??@?@D??_??G??A?AJ??_??G??A?aG??O??C??@?PC_?C??@???OCPO??_??G??A?aJ??A???_??GaG_??C??@???PCPG??C??@???PCPO??A???_??GaGm???_??G??A???O??C??@???O??H???O??C??@??@A???_??G??A??BA???_??G??A??G@???O??C??@??C_O??C??@???O?@OA???_??G??A??J?G??A???_??G?G_?O??C??@???O?PG?O??C??@???O?PO?G??A???_??G?Gk?A???_??G??A?aG??O??C??@???OCPG?@???O??C??@?PD??A???_??G??A?aJ??A???_??G??AGaG??@???O??C??@CPC_??O??C??@???PCPO??A???_??G??AGaJ'
p602
sS'C12Pow04'
p603
S'K~|xw}Np~F}N'
p604
sS'C12Pow05'
p605
S'K~~z|~^z~n~^'
p606
sS'C28Pow08'
p607
S'[~~~~~~^x~b~B~@~_^wB~?N{?^w?^w?N}?B~o?^~?@~}?B~}?B~~?@~~o?^~}?B~'
p608
sS'C56Pow08'
p609
S'w~~~~~~^x~b~B~@~_^wB~?N{?^w?^w?N{?B~??^w?@~_?B~??B~??@~_??^w??B~???N{???^w???^w???N{???B~????^w???@~_???B~????B~????@~_????^w????B~?????N{?????^w?????^w?????N{?????B~??????^w?????@~_?????B~_?????B~o?????@~{??????^~_?????B~}??????N~{??????^~{??????^~}??????N{'
p610
sS'C82Pow16'
p611
S'~?@Q~~~~~~~~~~~~~~~~~~~~~~|~~x~~w~~{N~~@~~wF~~_N~~?N~~?F~~_@~~w?N~~??~~{?@~~w?@~~w??~~{??N~~??@~~w??F~~_??N~~???N~~???F~~_??@~~w???N~~????~~{???@~~w???@~~w????~~{????N~~????@~~w????F~~_????N~~?????N~~?????F~~_????@~~w?????N~~??????~~{?????@~~w?????@~~w??????~~{??????N~~??????@~~w??????F~~_??????N~~???????N~~???????F~~_??????@~~w???????N~~????????~~{???????@~~{???????@~~}????????~~~_???????N~~{???????@~~~o???????F~~~_???????N~~~_???????N~~~o???????F~~~{???????@~~~~_???????N~~~}????????~~~~{???????@~~~~{???????@~~~~}????????~~~~~_???????N~~~~{???????@~~w'
p612
sS'C26Pow08'
p613
S'Y~~~~~~^x~b~B~@~_^wB~?N{?^{?^}?N~_B~{?^~o@~~_B~~_B~~o@~_'
p614
sS'DenBip46'
p615
S'~?@[????????????????????????????????????????????????????????????????????????????????????????????????????????????????????????????????????????????????????????????????????????????Ff|JcQhNqs^iBpm{rW~jsQEGVX[[{hCkFBv|lkM]@f^QgrVv?kHTnFWB{Ah}lNumh_ECoEl~E\\_@v\\ScDLz?AtA^nELL??dnFwnfUs?AFw|sjmO??^sErIH[k??o}Vmwdrc??q^WDhSV[??IQEF{}fS???}qoI}ez???RWXx[}T_???uVTxwlGO??F~_sUtjw???BoNHnSVQ_??AmEX]Dz]o???^_ai{vlk???F}Zo@\\VH_???EG|\\}rB{????v|GPVlgG????LI|Q{Jbc????J^TlIAnC????FFJLYzgc?????KZjnn`K??????w^J^hwaO?????Rf]@U\\m_????EL~AJVFW_????@HCFt^]r_?????rJVkaO[{?????CIplZnm}??????M_]VIlz_??????anCKaN~S??????r?teX]es??????@bwgv}Ay??????FnrtN\\S@_??????}{u\\^K{[??????@AY[Y^[j_??????DJ}}rmcZ???????Fwo}KTv`_???????'
p616
sS'DenBip47'
p617
S'~?@]????????????????????????????????????????????????????????????????????????????????????????????????????????????????????????????????????????????????????????????????????????????????????FmQbhp{qWV@jyD~ueR`rsUfUT[~{[fHq@xPIzhfF_vdMn{miG@QrItJ[jgCiBg{^ZboDtmCW}}io?Yk~ong`g?Q`Ppnf^S?EIRi~sAlO?Z}GSd}Lw??hQY]Dxui??NZm{Vad_??Tf]RdsD[??BuV~Mhcro??CjuZnw]m??B@[mYdvFo???cg]~scfo??@}bwcJVr???BSTx_Z[n_???}oay[]ZE???BskrnaKdO???HzuFRY[c????wVPvmym?????ZXVUzh@Y????ZvamlBZl????FUtdQdPl_????~uaMXLQK????BmXvPdMxO????@Bedxiimo????BkgZVRb[O????BCFn@^i}o?????Umz`iWtU?????DnQGmmm{??????MdzSeVso??????j[sR}D{U??????mWYKR~rm??????ItrE^Y{C??????CJkoYX{yo??????JqJ\\eZ[K??????BA~ncSX`W??????CJ^fs^YuO??????FVnz?BY\\o???????tpt]sClW???????u~g{qRnm????????'
p618
sS'DenBip44'
p619
S'~?@W?????????????????????????????????????????????????????????????????????????????????????????????????????????????????????????????????????????????????????????????BXUVkYxN\\b`FwYV``xm]U|]JynkLYx?S[]krVt?nmTNdAMoSxkffYq?BHn{Cc]s?icyD\\sqo@{z{mQ\\p?C{~EF`Xg?@y|aUqNG?BMn{ynaB??SiKS]zV_?DbtvmG@U??K]uy|iSG??c\\nDf]`???ofZ_Fm^???Hj\\nTUwo??@yLUn|la???|mTfKbqo??@N_RIvbm???CCku|Hte???DWfPo|cm????{fav@za????xXfN\\\\Co????BJjrWq}????VagMdhFw????Dyv~kYb?????VtGpwqwo????ZYD\\[yFW????CdIrR}rA?????wZv?pjHo????A@aPd}Nz?????EzSZaxHY?????D~vCJtyq?????BbjjWyvl??????m`B}hwQo?????BV{L|MXg??????WzH`jZh_??????}a@hON~_??????iF[Wep^O??????NZXpqnu_???????Isf]jie???????'
p620
sS'DenBip45'
p621
S'~?@Y?????????????????????????????????????????????????????????????????????????????????????????????????????????????????????????????????????????????????????????????????????TpwUmJmH[U|rtk@?Nl~B\\[CzXWKsjio|FUWUswWCe}JrJqcCbc||\\wZ?~Z?RnmMwBRp}^IJJ?EuyRjGN]?EWR]eWzp?AJzRefEV??LU^tgdKw?@H\\ai~qM??Ib~Lynns??~hdvzYDg??vm{A~E@O??TqXVHY[w??A|dq^Iio???gjaby{qW??BrX\\C]fV???EI\\tEawn???AAvk|iv_???AZ}wLVOa_???wPW}A~z????F\\JJSMYT????FvKS}^~W????JIvdzw`w????zXUNqYF?????VJbu@l^K????B]|mPHl|?????{xZ\\Kb|g????A\\uscQZF_?????XhFx|YU?????FZtZqIHa??????rQMg~NV??????U{b\\eWNG?????Fo{mBHmr??????AzdRjLTW??????PzpAxR~???????SyFkhypW??????^[d~nIt{???????vkNBVmk???????morxNCng???????gfo]utk_???????'
p622
sS'DenBip42'
p623
S'~?@S???????????????????????????????????????????????????????????????????????????????????????????????????????????????????????????????????????????????@sY~wPwMHZLJpkWnzKysJWbsD~owk@JHBlnaw^Q^q?ro_x[wz`Q[?~y_er[m?YxipIh^_@wp~tmi_?y`x[Yra?@dUwyw~{??x\\VbjX_?EbSr[zGg?AR[}v_r???~LmVYuc??Bg_yNygw??^dxljEl_??Va}F|iR???JzF{YbO???GfXQ\\te_??FY~aJu]G???MnxxDVA???B[xtAMXc????BJQ|Fyw???CTj~[DfO????^oYw}A{????\\k{gZO{????@`Daz\\vo????^OYxztu?????BvA{rBm??????^]UMMl?????UYJprYB_????AnxwMB]W?????yvC`mwL?????AzntLATk?????DiDzWnBG??????@l[Kx}w?????BRAEZpVs??????~yS{`PX??????EcY\\l^zO??????WMO{mY|???????'
p624
sS'DenBip43'
p625
S'~?@U??????????????????????????????????????????????????????????????????????????????????????????????????????????????????????????????????????????????????????Ea[yJ_~Y^IJ{IT[_a^jpp]fpqcartoN}LrTXk?FOJld^i_`xymraK_AEz[t[boFW\\XUyTk?nzMgEwt?Ac~bNadW?@~mURIzk?@^hX[XQk?AqfXmHq[??QL{F^xO_?E`ZfJkdW??^bIgE}F_??l~~PXDM???\\y`Jftn???[YWN^}oo??F`FzZ@}G???RrVwwjx_??@c]]UP^E???FexM|Tas???F]N]~lR_????zUVe|]s????DNn_y]r_???EV?lwle[????E_~NKjkO????n{kdmIH?????YnBewJq_????UzwPRjko????CqvnlfEo?????sAe^Q{n?????@xf`xiQq?????AHJPbv^o?????B@ZI{~TS?????AnQ@W}Y{??????Bl|[\\@[_?????BcxmiDe[??????^~QHRcpO??????UC`Pv}f_??????r]YmRRO_???????'
p626
sS'DenBip40'
p627
S'~?@O??????????????????????????????????????????????????????????????????????????????????????????????????????????????????????????????????HfOfxuz}oR~sesr`\\rfhcMiojxpa~br?rXoUHnfRWSCDey}DY_Gb\\[wjq?NWnG{TS?L[bwn@k?Tov`FVS?B{TzkxM??{V]WiFO??KTsl\\NO?F~RHJIa_?Anx_}`d??@ZRZjj\\o??Fnp}M}s??Du~kCYI???]hj]xRW???nq`YY}g???ewBPxs{???LMHPY|U???FU|]lL^_???pIltU^g???@Qd`e^to???B|~Wxw]????@b]Xk]S_???ABlzijEo????uJYlti_????@vReS\\p?????AJnVpdo?????PDi]zxO?????aicuSx{?????W|orEXY?????F]U\\LGh??????|HdvTkw?????BKouh{UO?????BQj`yzD??????DA{]Hfb_??????'
p628
sS'DenBip41'
p629
S'~?@Q?????????????????????????????????????????????????????????????????????????????????????????????????????????????????????????????????????????|c[lz^~VNspxGCcz~LEb_kY`tF|W|prEkecBZhNo\\Y?\\e]e\\DV?y^U{pJ}?K\\~txUk?Y]UONTr?ENEJLL|o?fYajNsW?@rMbVm~w?CMWnWZf_?E^|ZyQ\\O??]ehRXxo??fdVLuaE??AMzMVrDo??X~]EoEb???d{{eYge???tFwa^Sq???LSANvkt???BWmRiXm_???KMzWs~u???BxO^heeg???@~~sYv_????Ex]bKmZ_???Bxq{~o@?????Lo~elTo????DmykZu^?????LpIN~~k?????JIFUK~e?????{`FncT[?????^pWOi|L?????BN`^PmPO?????\\eNUoDu?????AtKNwMxO?????ARVTRjlO?????ConKK}}??????AhMPusYw??????b^Q]zzI???????'
p630
sS'C05C05C05'
p631
S'~?@|heAHCPBGG?P?P?G_BG?O?@C?AG?AG?@e??OO?AH??Ga??PA??X_???G???H???@C???CG??@GG??A?C??@C@???P?G??AG?_??K_@???O?@???P??_??G_?G??AG?@???X??C??@???G??AG??G??AG??C??@C??@???X???GO?A????`??G_??@A??P???@A??P????`??K_???G???????@???@????C???C????G???G????G??@G????C??@?????@???P?????G??AG?????_??G_????@???X?????@???O??????_??G_?????G??AG?????@???P??????C??@c??????G??A???????G??AG??????C??@C??????@???P???????G??BG???????`??G???????@A??P???????@A??P????????`??G_???????GO?BG???????@????????????C???C????????G???G????????G???G????????C???c????????@???O?????????G??AG?????????_??G_????????@???P?????????@???X??????????_??G??????????G??AG?????????@???P??????????C??@C??????????G??BG??????????G??A???????????C??@C??????????@???P???????????G??AG???????????_??K_??????????@A??O???????????@A??P????????????`??G_???????????GO?AG???????????@A??X_???????????C???@????????????G???H????????????G???G_???????????C???CG???????????@???H@????????????G??A?C????????????_??G_G???????????@???P?G???????????@???P?C????????????_??K_@????????????G??A??G???????????@???P??_???????????C??@C?@????????????G??AG?@????????????G??BG??_???????????C??@???G???????????@???P??@????????????G??AG??C????????????_??G_??G???????????@???X???G???????????@A??O???C????????????`??G_??@????????????GO?AG???G???????????@A??P????_???????????CG?@c'
p632
sS'DenBip48'
p633
S'~?@_????????????????????????????????????????????????????????????????????????????????????????????????????????????????????????????????????????????????????????????????????????????????????????????Im^xtIcWkPV}o}ooP[sZpINJepbxTtyW_IB|_JzDn?GF]ymRrKA^D}{i]kOAFx^G@flgB|j||Z_]c?|mf?Ysy`?CxrmpJPJW?AqmyJ}Xo??H^yBasxT??YBMttfTo??OUaev\\jR??EVVg`bKZo??vHsITX[]??@}^EkQzes??FnlVzSGzo??A]q}biIeO???b]dz}ArK???nmuVMViK???@t[\\N|]{g???U[pHuM}c_???tPHvTF]W????qH|Khm\\z????IwCTzqn^????A|vHnwsWw????}XWlQ^yu????BzLYgden_????Dy}GQ~FQ?????FCZ~_VKlg????Bt~RV`y\\g?????HmIIzSnU?????FCTnH^l?g?????HJRG|HB~_?????|in{_KWk??????JMzQZJV@??????S^H\\LRQf_?????BhgP~lP^w???????\\QxK~uF??????@^YBRQTlc??????C\\ef{Hv@_??????FmHh_MleW??????A~LsZmLH{???????{xE`tTBy????????A`bu|Zfg???????AyRC~raR_???????'
p634
sS'DenBip49'
p635
S'~?@a????????????????????????????????????????????????????????????????????????????????????????????????????????????????????????????????????????????????????????????????????????????????????????????????????id{X}]FRGzdQpT}teWJZbwwp{dw~fiKKQ`Qyl\\az]CFcpfQDT^c@hoxHbZ|c@}vbbvl_k?D~cku{LN?B~Kqvmr_g?If]azRXCo?]X^JXtue??rdK~exUO??JOhph~YJ_?C]ztbBH~c??_u}Oknpt??Blk|iJWYS???yfFV_jiw??EChpiXfxw??@@qQ~lUvC???lpjf`{gI_??FMxpv~\\[????QLqZol{JO???]LtSBLTv_???}WxTL_yi_???]^bvKCY^_???CWq~[Wvx?????[i|wxTHm_???ATvtduV?Q?????x^||~^HG????FSb[rtLIc????BMFMpUSzk?????VQ|?p^VQ_????AFsEEzqV{?????EPx@drxmo?????Nyfw~UJI??????Jx@vFbKx_?????DFmMhygfO?????FXAyJct|{??????xJfhfUb|_?????APyLwJknE??????Dly_ZrDE[??????FRyN\\oBdc???????oDnkx~}q???????z{c^Dhaw???????FUwvckC]c???????DxYET[jl_???????lyXuuo]r????????~SIFxzou_????????'
p636
sS'C35Pow08'
p637
S'b~~~~~~^x~b~B~@~_^wB~?N{?^w?^w?N{?B~??^w?@~_?B~??B~??@~_??^{??B~o??N~_??^~_??^~o??N~{??B~~_??^~}??@~_'
p638
sS'C76Pow16'
p639
S'~?@K~~~~~~~~~~~~~~~~~~~~~~|~~x~~w~~{N~~@~~wF~~_N~~?N~~?F~~_@~~w?N~~??~~{?@~~w?@~~w??~~{??N~~??@~~w??F~~_??N~~???N~~???F~~_??@~~w???N~~????~~{???@~~w???@~~w????~~{????N~~????@~~w????F~~_????N~~?????N~~?????F~~_????@~~w?????N~~??????~~{?????@~~w?????@~~w??????~~{??????N~~??????@~~w??????F~~_??????N~~_??????N~~o??????F~~{??????@~~~_??????N~~}???????~~~{??????@~~~{??????@~~~}???????~~~~_??????N~~~{??????@~~~~o??????F~~~~_??????N~~~~_??????N~~~~o??????F~~~~{??????@~~~~~_??????N~~'
p640
sS'C45Pow08'
p641
S'l~~~~~~^x~b~B~@~_^wB~?N{?^w?^w?N{?B~??^w?@~_?B~??B~??@~_??^w??B~???N{???^w???^w???N{???B~????^w???@~_???B~????B~_???@~w????^~????B~{????N~w????^~w????^~{????N~~????B~'
p642
sS'W20'
p643
S'ShCGGC@?G?_@?@??_?G?@??C??K??N~~{'
p644
sS'K03K03K11'
p645
S'~?@b~~~~~~~~~o?O@G@a?wON@@{AFwANw@N{?V~?B~{?G?G?O@G?OBC?GB`?A@wG?O^?_@B{@?ANw@?A^w?_@^{?G?^~_????A?????c????BC????FA????F__???BwC????~?O???F{?_???^w?_???~w?O???~{?C???O???_??A?G?A???G@_?C???OF??C???ON??A???GN_??_??AFw??C???P~???O??@N{???_??A~w???_??B~w???O?_@?????C?G?O@????_@?A?W???A?C?GB_???C?G?ON????C?G?O^????A?C?G^_????_@?ANw????C?G?R~?????O?_@^{?????_@?B~{?????_????A?????O????C_????C????BC?????_????wO????A????F__????C????^?_????C????~?O????A????~_C?????_???^w?_????C???F~?A?????O???~{?C?????_??A???C?????_??A?G?A?????O??@?K??_????C???OF??C?????_??A@w??O????A???GN_??_????C???O~???_????C???P~???O????A???H~_??C?????_??A~w???_????C???^~???A?????O?_@?????C?????_@?A?G???C?????_@?A?W???A?????O?_@?[????_????C?G?ON????C?????_@?ABw????O????A?C?G^_????_????C?G?P~?????_????C?G?R~?????O????A?C?J~_????C?????_@?B~w'
p646
sS'K03K03K10'
p647
S'~?@Y~~~~~~~{?G@GBCB`@wG^?b{@Nw@^w?~}?G?O@?H?C@a?GFA?GN@?CN_O@FwA?H~?G?n{?O@~{????A????C_???BC????wO???F__???^?_???~?O???~_C???^w?_??F~?A???_??C??@?G?C??@?W?A???_[??_??GN??C??@Bw??O??C^_??_??H~???_??J~???O??F~_??C?O@?????_A?G@???A?G?_K???C?O@?w???C?O@@w???A?G?`{????_A?G~????C?O@Nw????O@?D~_????_A?N~_????_????O????O????c????C????W_????_???FA????A????{C????C???BwC????C???FwA????A???F{?_????_??B~?C????C???~w?O????O??C???_????_??G@??_????_??GB??O????O??CB_?C????C??@@w??_????_??G^??A????A???b{??C????C??@Nw??C????C??@^w??A????A???~{???_????_A?G????C????C?O@?G???O????O@?C@_???_????_A?GF????_????_A?GN????O????O@?CN_???C????C?O@Fw????_????_A?H~????A????A?G?n{????C????C?O@~w'
p648
sS'C27Pow08'
p649
S'Z~~~~~~^x~b~B~@~_^wB~?N{?^w?^{?N~?B~w?^~_@~~?B~~?B~~_@~~w?^w'
p650
sS'K03K20'
p651
S'{~~~~~~~~~~~~~~~~~~~~~~~~~~~~~~~}???O??H??@a??FA??N@??N_O?FwA?@~?G?N{?O?~w?O@~w?G@~{?A?~~??ON~w?@@~~_?AF~~??AN~~??@N~~_??V~~w??B~~~_??G??@???O??H???O??W_??G??[G??A??N@???O?BwC??@??^_G??A?@~?G??A?B~?C??@?B~_@???O@~w?G??A?^~??_??GB~{?@???ON~w?@???O^~w??_??G^~{??G??AN~~??@???R~~w??C??@^~~_??G??B~~~'
p652
sS'C44Pow08'
p653
S'k~~~~~~^x~b~B~@~_^wB~?N{?^w?^w?N{?B~??^w?@~_?B~??B~??@~_??^w??B~???N{???^w???^w???N{???B~????^w???@~_???B~_???B~o???@~{????^~_???B~}????N~{????^~{????^~}????N{'
p654
sS'Q2K03K08'
p655
S'~?@_r`HOmGPHDAJaGPCcPOaJaG`CPHCPOaGmGaGPCPHCPDAGaJaGaGPCPCcPCPOaGaJaGaG`CPCPHCPCPOaGaGm?????O????H????@A????BA????G@????C_O???@OA????J?G???G_?O???PG?O???PO?G???Gk?A???aG??O??CPG?@???PD??A???aJ??A??GaG??@??CPC_??O?@CPO??A??GaJ???G?GaG_???O?PCPG???O?PCPO???G?GaGk???A?aGaG????OCPCPG???@?PCPD????A?aGaJ????AGaGaG????@CPCPC_????PCPCPO????AGaGaJ_????G????@?????O????H?????O????O_????G????KG????A????G@?????O???@GC????@????D?G????A????J?G????A???AG?C????@???@C_@?????O???PO?G????A???AJ??_????G??AG_?@?????O??CPG?@?????O??CPO??_????G??AGk??G????A??GaG??@?????O?@CPG??C????@??CPD???G????A??GaJ???G????A?AGaG???C????@?@CPC_??@?????O?PCPO???G????A?AGaJ????_????GAGaG_???@?????OCPCPG???@?????OCPCPO????_????GAGaGk????G????AGaGaG????@?????PCPCPG????C????@CPCPD?????G????AGaGaJ'
p656
sS'C58Pow08'
p657
S'y~~~~~~^x~b~B~@~_^wB~?N{?^w?^w?N{?B~??^w?@~_?B~??B~??@~_??^w??B~???N{???^w???^w???N{???B~????^w???@~_???B~????B~????@~_????^w????B~?????N{?????^w?????^w?????N{?????B~??????^w?????@~_?????B~??????B~??????@~o??????^}??????B~w??????N~o??????^~o??????^~w??????N~}??????B~~o??????^w'
p658
sS'PetQ3'
p659
S'~?@Or`HOm?OH@ABAG@C_POAJ?G??OG?OO?GK?AG??PG?@D??AJ??A???@?_??OO??AB???G_???PG???PO???Gm???A?O???OH???@@A???ABA???AG@???@C_O???POA???AJ_?????@??????H??????O_?????KG?????G@?????@GC?????D?G?????J?G???????C??????_@??????O?G?????B??_?????_?@?????@G?@?????@O??_?????k??G???G????@???@??G??C???C?@???G???G?B???G???G?G???C???C?C_??@???@?@O???G???G?J????_?A?_?????@??C@??G???@??C@??O????_?A?_?K????G??_G?G????@??C@?@G????C??OC?D?????G??_G?J?????G??_G???????C??OC??_????@??C@??O?????G??_G?B??????_?A?_?_?????@??C@?@G?????@??C@?@O??????_?A?_?k'
p660
sS'PetQ2'
p661
S'gr`HOkG@GD?J?G?C_@O?J_?`?@H?@O_?m???O??H??@A??BA???@???_O??OA??B?G?G??O?OG?O?OO?G?GK?A?a???OCOG?@?P@??A?aB??A?a???@?P?_??OCOO??A?aB'
p662
sS'Lem'
p663
S'GqKp_{'
p664
sS'C70Pow16'
p665
S'~?@E~~~~~~~~~~~~~~~~~~~~~~|~~x~~w~~{N~~@~~wF~~_N~~?N~~?F~~_@~~w?N~~??~~{?@~~w?@~~w??~~{??N~~??@~~w??F~~_??N~~???N~~???F~~_??@~~w???N~~????~~{???@~~w???@~~w????~~{????N~~????@~~w????F~~_????N~~?????N~~?????F~~_????@~~w?????N~~??????~~{?????@~~{?????@~~}??????~~~_?????N~~{?????@~~~o?????F~~~_?????N~~~_?????N~~~o?????F~~~{?????@~~~~_?????N~~~}??????~~~~{?????@~~~~{?????@~~~~}??????~~~~~_?????N~~~~{?????@~~w'
p666
sS'C64Pow16'
p667
S'~?@?~~~~~~~~~~~~~~~~~~~~~~|~~x~~w~~{N~~@~~wF~~_N~~?N~~?F~~_@~~w?N~~??~~{?@~~w?@~~w??~~{??N~~??@~~w??F~~_??N~~???N~~???F~~_??@~~w???N~~????~~{???@~~w???@~~w????~~{????N~~????@~~w????F~~_????N~~_????N~~o????F~~{????@~~~_????N~~}?????~~~{????@~~~{????@~~~}?????~~~~_????N~~~{????@~~~~o????F~~~~_????N~~~~_????N~~~~o????F~~~~{????@~~~~~_????N~~'
p668
sS'C21Pow04'
p669
S'T~|xw{N@wF_N?N?F_@w?N??}?@}?@~??~o?N'
p670
sS'C75Pow16'
p671
S'~?@J~~~~~~~~~~~~~~~~~~~~~~|~~x~~w~~{N~~@~~wF~~_N~~?N~~?F~~_@~~w?N~~??~~{?@~~w?@~~w??~~{??N~~??@~~w??F~~_??N~~???N~~???F~~_??@~~w???N~~????~~{???@~~w???@~~w????~~{????N~~????@~~w????F~~_????N~~?????N~~?????F~~_????@~~w?????N~~??????~~{?????@~~w?????@~~w??????~~{??????N~~??????@~~w??????F~~o??????N~~o??????N~~w??????F~~}??????@~~~o??????N~~~???????~~~}??????@~~~}??????@~~~~???????~~~~o??????N~~~}??????@~~~~w??????F~~~~o??????N~~~~o??????N~~~~w??????F~~~~}??????@~~w'
p672
sS'C05K09'
p673
S'l~~~~~~_A?cBCFAF_bwC~?V{?~w?_??OC?CB??_w?AF_?C^??C~??A~_??~w??C????OC???_W???_w???O{???C^????fw???A~_???F~_???C?O???A?c????_W_???CFA????O{C????bwC????fwA????V{?_???F~'
p674
sS'C05K08'
p675
S'g~~~~}?OH@aFAN@N_VwB~?G??OG?OW?G[?AN??Rw?@^_?B~??A???@?_??OW??AF???G{???Rw???Vw???N}???A?O???OH???@@a???AFA???AN@???@N_O???VwA???B~'
p676
sS'C05K07'
p677
S'b~~~{@@GWb`N@^?~_G?@@?CK?Gw?Hw?D{?@~??G???__?@B??@F???f_??Jw??@~_??C@???GH???GW_??C[G??@N@???JwC???~_'
p678
sS'C05K06'
p679
S']~~{ACbCwV_~?_?O_CW?f?A{?Fw?C??AC??b??Cw??V_??~_??_O??Oc??CW_??fA??A{C??Fw'
p680
sS'C05K05'
p681
S'X~}AHKVBwG?P?R?J_Bw?O?@C?AW?Aw?@}??OO?AH??Ha??VA??^'
p682
sS'C05K04'
p683
S'S~`HW{G@GD_N?G?C_@W?N_?`?@H?@W_?{'
p684
sS'C05K03'
p685
S'N{Sw_SF?_A_F_COAc?w'
p686
sS'C05K02'
p687
S'IrGWOMAOW'
p688
sS'Q3K11'
p689
S'~?@W~~~~~~~~~o?O@G@a?wON@@{AFwANw@N{?V~?B~{???G??@G??BC??B`??@wG??^?_?B{@??Nw@??^w?_?^{?G?N~?@?A???C?G?_?G?OB??G?OF??C?GF_?@?ABw??G?O~???_@F{??@?A^w??@?A~w???_@~}???????O??????H??????@a??????FA??????N@??????N_O?????FwA?????@~?G?????N{?O?????~w?O????@~w?G????@???A?????O@??O????A?W?@?????GB_?A?????ON??A?????O^??@?????G^_??O????ANw??A?????R~???G????@^{???O????B~w???O??@???????G???_??C???A???G??B????O??@???w???@???C??F_???A???G??^????A???G??~????@???C??~_????O??@??^w????A???G?F~?????G???_?~{?????O??@?A???????O??@?A?G?????G???_@?K?????A???G?OF??????O??@?A@w?????@???C?GN_?????A???G?O~??????A???G?P~??????@???C?H~_??????O??@?A~w??????A???G?^~'
p690
sS'Q3K10'
p691
S'~?@O~~~~~~~{?G@GBCB`@wG^?b{@Nw@^w?~}???O??H??@a??FA??N@??N_O?FwA?@~?G?N{?O?~w?O@???G?_C?A?GB??O@?w?@?CF_?A?G^??A?G~??@?C~_??O@^w??A?N~_?????@??????H??????W_?????[G?????N@?????BwC?????^_G????@~?G????B~?C????B~_@????@???G????G@??_????_K?@????@?w?@????@@w??_????`{??G????G~??@????@Nw??C????D~_??G????N~???G??A??????C??@???_??@???O??W???G??A??F????_??G??{???@???O?Bw???@???O?Fw????_??G?F{????G??A?B~????@???O?~w????C??@?C??????G??A?G@?????G??A?GB?????C??@?CB_????@???O@@w?????G??A?G^??????_??G?b{?????@???O@Nw?????@???O@^w??????_??G?~{'
p692
sS'Q3K12'
p693
S'~?@_~~~~~~~~~~~_?O?c?W_FA?{CBwCFwAF{?b~?C~w?V~_?~~_???O???c???W_??FA???{C??BwC??FwA??F{?_?B~?C??~w?O?F~_?_?^~??_?_???O?O?_?C?C?W??_?_F??A?A?{??C?CBw??C?CFw??A?AF{???_?b~???C?C~w???O?V~_???_?~~_???????O???????c???????W_??????FA???????{C??????BwC??????FwA??????F{?_?????B~?C??????~w?O?????F~_?_?????^~??_?????_???O?????O?_?C?????C?W??_?????_F??A?????A?{??C?????CBw??C?????CFw??A?????AF{???_?????b~???C?????C~w???O?????V~_???_?????~~????_???_???????O???O???_???C???C???W????_???_??F????A???A???{????C???C??Bw????C???C??Fw????A???A??F{?????_???_?B~?????C???C??~w?????O???O?F~_?????_???_?^~??????_???_?_???????O???O?O?_?????C???C?C?W??????_???_?_F??????A???A?A?{??????C???C?CBw??????C???C?CFw??????A???A?AF{???????_???_?b~???????C???C?C~w???????O???O?V~_???????_???_?~~'
p694
sS'K02K20'
p695
S'g~~~~~~~~~~~~~~~~~~~~~~~~~~~~~~~}???O??H??@a??FA??N@??N_O?FwA?@~?G?N{?O?~w?O@~w?G@~{?A?~~??ON~w?@@~~_?AF~~??AN~~??@N~~_??V~~w??B~~~'
p696
sS'C06Pow02'
p697
S'EznW'
p698
sS'DenBip06'
p699
S'K??BjzgnFw]?'
p700
sS'DenBip07'
p701
S'M???FfqNf{\\of_~??'
p702
sS'DenBip04'
p703
S'G?vtb_'
p704
sS'DenBip05'
p705
S'I?B^fPwm?'
p706
sS'DenBip08'
p707
S'O????Bl~BM]Ohou_ZGC}?'
p708
sS'DenBip09'
p709
S'Q??????~m}TknozwVKBf?]gBe_?'
p710
sS'C60Pow16'
p711
S'{~~~~~~~~~~~~~~~~~~~~~~|~~x~~w~~{N~~@~~wF~~_N~~?N~~?F~~_@~~w?N~~??~~{?@~~w?@~~w??~~{??N~~??@~~w??F~~_??N~~???N~~???F~~_??@~~w???N~~????~~{???@~~w???@~~w????~~}????N~~o???@~~~????F~~}????N~~}????N~~~????F~~~o???@~~~}????N~~~w????~~~~o???@~~~~o???@~~~~w????~~~~}????N~~~~o???@~~~~~????F~~~~}????N~~'
p712
sS'K02K07'
p713
S'M~~~{@@GWb`N@^?~_'
p714
sS'K02'
p715
S'A_'
p716
sS'K03'
p717
S'Bw'
p718
sS'K04'
p719
S'C~'
p720
sS'K05'
p721
S'D~{'
p722
sS'K06'
p723
S'E~~w'
p724
sS'K07'
p725
S'F~~~w'
p726
sS'K08'
p727
S'G~~~~{'
p728
sS'K09'
p729
S'H~~~~~~'
p730
sS'LemK07'
p731
S'w~~~{@@GWb`N@^?~o?A?@G?KO?wO@wG@{A?~?O??@??_A?B?A?F?@?F_?OBw?A?~??GC???OGG??OGW??GC[??A@N???OJw??@?~_?CA????CA?@??A@?@_??_O?w??CA?N???OG@{???_OFw?@?_?????_O??C??GC??B??@?_??w??CA??F_??GC??^???GC??~???CA@?_???@?_OGG???GCA@B????_OGC[???@?_OHw???@?_OJw????_OGF{'
p732
sS'C74Pow16'
p733
S'~?@I~~~~~~~~~~~~~~~~~~~~~~|~~x~~w~~{N~~@~~wF~~_N~~?N~~?F~~_@~~w?N~~??~~{?@~~w?@~~w??~~{??N~~??@~~w??F~~_??N~~???N~~???F~~_??@~~w???N~~????~~{???@~~w???@~~w????~~{????N~~????@~~w????F~~_????N~~?????N~~?????F~~_????@~~w?????N~~??????~~{?????@~~w?????@~~w??????~~{??????N~~??????@~~{??????F~~w??????N~~w??????N~~{??????F~~~??????@~~~w??????N~~~_??????~~~~??????@~~~~??????@~~~~_??????~~~~w??????N~~~~??????@~~~~{??????F~~~~w??????N~~~~w??????N~~~~{??????F~~_'
p734
sS'C93Pow16'
p735
S'~?@\\~~~~~~~~~~~~~~~~~~~~~~|~~x~~w~~{N~~@~~wF~~_N~~?N~~?F~~_@~~w?N~~??~~{?@~~w?@~~w??~~{??N~~??@~~w??F~~_??N~~???N~~???F~~_??@~~w???N~~????~~{???@~~w???@~~w????~~{????N~~????@~~w????F~~_????N~~?????N~~?????F~~_????@~~w?????N~~??????~~{?????@~~w?????@~~w??????~~{??????N~~??????@~~w??????F~~_??????N~~???????N~~???????F~~_??????@~~w???????N~~????????~~{???????@~~w???????@~~w????????~~{????????N~~????????@~~w????????F~~_????????N~~?????????N~~?????????F~~_????????@~~w?????????N~~??????????~~}?????????@~~}?????????@~~~??????????~~~o?????????N~~}?????????@~~~w?????????F~~~o?????????N~~~o?????????N~~~w?????????F~~~}?????????@~~~~o?????????N~~~~??????????~~~~}?????????@~~~~}?????????@~~~~~??????????~~~~~o?????????N~~'
p736
sS'C72Pow16'
p737
S'~?@G~~~~~~~~~~~~~~~~~~~~~~|~~x~~w~~{N~~@~~wF~~_N~~?N~~?F~~_@~~w?N~~??~~{?@~~w?@~~w??~~{??N~~??@~~w??F~~_??N~~???N~~???F~~_??@~~w???N~~????~~{???@~~w???@~~w????~~{????N~~????@~~w????F~~_????N~~?????N~~?????F~~_????@~~w?????N~~??????~~{?????@~~w?????@~~w??????~~}??????N~~o?????@~~~??????F~~}??????N~~}??????N~~~??????F~~~o?????@~~~}??????N~~~w??????~~~~o?????@~~~~o?????@~~~~w??????~~~~}??????N~~~~o?????@~~~~~??????F~~~~}??????N~~'
p738
sS'K10K10'
p739
S'~?@c~~~~~~~{?G@GBCB`@wG^?b{@Nw@^w?~}?G?O@?H?C@a?GFA?GN@?CN_O@FwA?H~?G?n{?O@~{?O@?A?G?_C_A?GBC?O@?wO@?CF__A?G^?_A?G~?O@?C~_C?O@^w?_A?N~_A?G?_@?C?O@?H?C?O@?W_A?G?_[G?_A?GN@?C?O@BwC?O@?C^_G?_A?H~?G?_A?J~?C?O@?F~o@?C?O@?A?G?_A?G@G?_A?G?_KO@?C?O@?wO@?C?O@@wG?_A?G?`{A?G?_A?G~?O@?C?O@Nw@?C?O@?D~_A?G?_A?N~_A?G?_A?G?O@?C?O@?C?c?O@?C?O@?W_A?G?_A?GFA?G?_A?G?_{C?O@?C?O@BwC?O@?C?O@FwA?G?_A?G?f{?_A?G?_A?J~?C?O@?C?O@~{?O@?C?O@?C?G?_A?G?_A?G@G?_A?G?_A?GBC?O@?C?O@?CB`?C?O@?C?O@@wG?_A?G?_A?G^?_A?G?_A?G?b{@?C?O@?C?O@Nw@?C?O@?C?O@^w?_A?G?_A?G?~}?G?_A?G?_A?G?O@?C?O@?C?O@?H?C?O@?C?O@?C@a?G?_A?G?_A?GFA?G?_A?G?_A?GN@?C?O@?C?O@?CN_O@?C?O@?C?O@FwA?G?_A?G?_A?H~?G?_A?G?_A?G?n{?O@?C?O@?C?O@~{?O@?C?O@?C?O@?A?G?_A?G?_A?G?_C_A?G?_A?G?_A?GBC?O@?C?O@?C?O@?wO@?C?O@?C?O@?CF__A?G?_A?G?_A?G^?_A?G?_A?G?_A?G~?O@?C?O@?C?O@?C~_C?O@?C?O@?C?O@^w?_A?G?_A?G?_A?N~'
p740
sS'C17Pow04'
p741
S'P~|xw{N@wF_N?N_Fw@~?N{?{'
p742
sS'K05K18'
p743
S'~?@Y~~~~~~~~~~~~~~~~~~~~~~~~~{??A??C_?BC??wO?F__?^?_?~?O?~_C?^w?_F~?A?~{?CB~w?CF~w?AF~{??b~~??C~~w??V~~_??~~~_??_??O??O??c??C??W_??_?FA??A??{C??C?BwC??C?FwA??A?F{?_??_B~?C??C?~w?O??OF~_?_??_^~??_??_~~??O??O~~_?C??C^~w??_??f~~??A??A~~{??C??F~~{??C??C??A??A??A??C_??_??_?BC??C??C??wO??O??O?F__??_??_?^?_??_??_?~?O??O??O?~_C??C??C?^w?_??_??_F~?A??A??A?~{?C??C??CB~w?C??C??CF~w?A??A??AF~{??_??_??b~~??C??C??C~~w??O??O??V~~_??_??_??~~~_??_??_??_??O??O??O??O??c??C??C??C??W_??_??_??_?FA??A??A??A??{C??C??C??C?BwC??C??C??C?FwA??A??A??A?F{?_??_??_??_B~?C??C??C??C?~w?O??O??O??OF~_?_??_??_??_^~??_??_??_??_~~??O??O??O??O~~_?C??C??C??C^~w??_??_??_??f~~??A??A??A??A~~{??C??C??C??F~~w'
p744
sS'C59Pow08'
p745
S'z~~~~~~^x~b~B~@~_^wB~?N{?^w?^w?N{?B~??^w?@~_?B~??B~??@~_??^w??B~???N{???^w???^w???N{???B~????^w???@~_???B~????B~????@~_????^w????B~?????N{?????^w?????^w?????N{?????B~??????^w?????@~_?????B~??????B~??????@~_??????^{??????B~o??????N~_??????^~_??????^~o??????N~{??????B~~_??????^~}??????@~_'
p746
sS'K05K10'
p747
S'q~~~~~~~{?G@GBCB`@wG^?b{@Nw@^w?~}?G?O@?H?C@a?GFA?GN@?CN_O@FwA?H~?G?n{?O@~{?O@?A?G?_C_A?GBC?O@?wO@?CF__A?G^?_A?G~?O@?C~_C?O@^w?_A?N~_A?G?_@?C?O@?H?C?O@?W_A?G?_[G?_A?GN@?C?O@BwC?O@?C^_G?_A?H~?G?_A?J~?C?O@?F~_'
p748
sS'K05K11'
p749
S'v~~~~~~~~~o?O@G@a?wON@@{AFwANw@N{?V~?B~{?G?G?O@G?OBC?GB`?A@wG?O^?_@B{@?ANw@?A^w?_@^{?G?^~_@?A?A?C?G?c?G?OBC?G?OFA?C?GF__@?ABwC?G?O~?O?_@F{?_@?A^w?_@?A~w?O?_@~}?C?G?O?O?_@?A?H?A?C?G@a?C?G?OFA?C?G?ON@?A?C?GN_O?_@?AFwA?C?G?P~?G?O?_@N{?O?_@?A~w?O?_@?B~w'
p750
sS'K05K12'
p751
S'{~~~~~~~~~~~_?O?c?W_FA?{CBwCFwAF{?b~?C~w?V~_?~~_?_?O?O?c?C?W_?_FA?A?{C?CBwC?CFwA?AF{?_?b~?C?C~w?O?V~_?_?~~_?_?_?O?O?O?c?C?C?W_?_?_FA?A?A?{C?C?CBwC?C?CFwA?A?AF{?_?_?b~?C?C?C~w?O?O?V~_?_?_?~~_?_?_?_?O?O?O?O?c?C?C?C?W_?_?_?_FA?A?A?A?{C?C?C?CBwC?C?C?CFwA?A?A?AF{?_?_?_?b~?C?C?C?C~w?O?O?O?V~_?_?_?_?~~'
p752
sS'K05K13'
p753
S'~?@@~~~~~~~~~~~~~_?G?H?BC?[G@wGBwCB{@@~?G^w?b~_@N~?@^~??~~o?G?A?@?@G?C?KO?G?wO?G@wG?C@{A?@?~?O?GNw@??`~_A?@F~?A?@N~?@??n~_?O?N~{?A?@??O?G?C?C_?O?G?W_?O?G?wO?G?C?{C?A?@?^?_?O?GFwA?@??_~_C?A?@B~?C?A?@F~?A?@??f~_?_?O?J~w?C?A?@~~_?O?G?C?@??_?O?G?H??_?O?G?W_?O?G?C?[G?C?A?@?N@??_?O?GBwC?A?@??_^_G?C?A?@@~?G?C?A?@B~?C?A?@??b~_@??_?O?H~w?G?C?A?@^~??_?O?G?F~{'
p754
sS'K05K14'
p755
S'~?@E~~~~~~~~~~~~~~~o?A?@G?KO?wO@wG@{A?~?ONw@@~_AF~?AN~?@N~_?V~w?B~~_?G?@??O?H??O?W_?G?[G?A?N@??OBwC?@?^_G?A@~?G?AB~?C?@B~_@??P~w?G?A^~??_?J~{?@??^~{?@??O?A??_?G?C_?G?A?BC?@??O?wO?C?@?F__?G?A?^?_?G?A?~?O?C?@?~_C?@??O^w?_?G?AF~?A??_?G~{?C?@??R~w?C?@??V~w?A??_?N~}??_?G?A??O?C?@??O?H??O?C?@?@a??_?G?A?FA??_?G?A?N@??O?C?@?N_O?C?@??OFwA??_?G?A@~?G?A??_?GN{?O?C?@??O~w?O?C?@??P~w?G?A??_?H~{?A??_?G?A~~??O?C?@??^~w'
p756
sS'K05K15'
p757
S'~?@J~~~~~~~~~~~~~~~~~{??O?C_?W_?wO?{C?^?_FwA?~_CB~?CF~?AF~_?b~w?C~~??V~{??~~{??_?A??O?C_?C?BC??_?wO?A?F__?C?^?_?C?~?O?A?~_C??_^w?_?CF~?A??O~{?C??b~w?C??f~w?A??V~{??_?F~~_?C??_?A??O?A??c??_?C?BC??_?C?FA??O?A?F__?C??_BwC??_?C?~?O?A??OF{?_?C??_^w?_?C??_~w?O?A??O~{?C??_?C^~??_?C??f~w?A??O?A~~_?C??_?F~~_?C??_?C??O?A??O?A??c??_?C??_?W_?C??_?C?FA??O?A??O?{C??_?C??_BwC??_?C??_FwA??O?A??OF{?_?C??_?CB~?C??_?C??_~w?O?A??O?AF~_?_?C??_?C^~??_?C??_?C~~??O?A??O?A~~_?C??_?C??~~w'
p758
sS'K05K16'
p759
S'~?@O~~~~~~~~~~~~~~~~~~~~_?@??H??W_?[G?N@?BwC?^_G@~?GB~?CB~_@@~w?G^~??b~{?@N~w?@^~w??~~}??G??O?@??H??C?@a??G?FA??G?N@??C?N_O?@?FwA??G@~?G??_N{?O?@?~w?O?@@~w?G??`~{?A??G~~??O?@N~w?@??D~~_?A??N~~_?A??G??O?@??C??c??O?@??W_?A??G?FA??G??_?{C??O?@?BwC??O?@?FwA??G??_F{?_?A??GB~?C??O?@?~w?O?@??CF~_?_?A??G^~??_?A??G~~??O?@??C~~_?C??O?@^~w??_?A??N~~_?A??G??_?@??C??O?@??H??C??O?@??W_?A??G??_?[G??_?A??G?N@??C??O?@?BwC??O?@??C?^_G??_?A??G@~?G??_?A??GB~?C??O?@??CB~_@??C??O?@@~w?G??_?A??G^~??_?A??G??b~{?@??C??O?@N~w?@??C??O?@^~w??_?A??G??~~{'
p760
sS'K05K17'
p761
S'~?@T~~~~~~~~~~~~~~~~~~~~~~}??A??H??KO?FA?@wG?N_O?~?O@~?G@~_A?~w?ON~?@@~{?AF~w?AN~w?@N~{??V~~??B~~{??G??G??O?@G??O?BC??G?B`??A?@wG??O?^?_?@?B{@??A?Nw@??A?^w?_?@?^{?G??ON~?@??AB~w?C??G^~_?G??P~~??G??R~~??C??J~~_?@??B~~{??G??O??O??_?@??C_?@??A??W_?@??A??wO??_?@??{C??G??O?^?_?@??A?FwA??C??G?~_C??G??OB~?C??G??OF~?A??C??GF~_?_?@??AB~w?C??G??O~~??O??_?@F~{??_?@??A^~w??_?@??A~~w??O??_?@~~}??C??G??O??O??_?@??A??H??A??C??G?@a??C??G??O?FA??C??G??O?N@??A??C??G?N_O??_?@??A?FwA??C??G??O@~?G??O??_?@?N{?O??_?@??A?~w?O??_?@??A@~w?G??O??_?@@~{?A??C??G??O~~??O??_?@??AN~w?@??A??C??H~~_?A??C??G??V~~??A??C??G??^~~'
p762
sS'C05C05K4'
p763
S'~?@c~`HW}GPHDaNaGPCcPWaNaG`CPHCPWaG}???O??H??@a??FA??G@??C_O?@WA??N?G?G_?O?PG?O?PW?G?G{?A?aG??OCPG?@?PD_?A?aN??AGaG??@CPC_??PCPW??AGaN_??G??@???O??H???O??W_??G??[G??A??G@???O?@GC??@??D_G??A??N?G??A?AG?C??@?@C_@???O?PW?G??A?AN??_??GAG_?@???OCPG?@???OCPW??_??GAG{??G??AGaG??@???PCPG??C??@CPD_??G??AGaN_??G??A???O??C??@???c??@???O??W_??G??A??FA???_??G??_C??@???O?@GC??@???O?@WA???_??G??{?_??G??A?AG?C??@???O?PG?O??C??@?@D_?_??G??A?AN??_??G??A?aG??O??C??@?PC_?C??@???OCPW??_??G??A?aN??A???_??GaG_??C??@???PCPG??C??@???PCPW??A???_??GaG}???_??G??A???O??C??@???O??H???O??C??@??@a???_??G??A??FA???_??G??A??G@???O??C??@??C_O??C??@???O?@WA???_??G??A??N?G??A???_??G?G_?O??C??@???O?PG?O??C??@???O?PW?G??A???_??G?G{?A???_??G??A?aG??O??C??@???OCPG?@???O??C??@?PD_?A???_??G??A?aN??A???_??G??AGaG??@???O??C??@CPC_??O??C??@???PCPW??A???_??G??AGaN'
p764
sS'C05C05K3'
p765
S'~?@J{S{aSfcaQcfccQQcc{??O?C_?W_?_O?SC?F?_C_A?Q_C?f?CCc?AAQ_?_cw?Ccc??QQS??cc{??_?A??O?C_?C?BC??_?_O?A?A__?C?F?_?C?c?O?A?Q_C??_Cw?_?CCc?A??OQS?C??_cw?C??cc_?A??QQS??_?Ccf_?C??_?A??O?A??c??_?C?BC??_?C?CA??O?A?A__?C??_?wC??_?C?c?O?A??OAS?_?C??_Cw?_?C??_c_?O?A??OQS?C??_?CCf??_?C??cc_?A??O?AQQ_?C??_?Ccf_?C??_?C??O?A??O?A??c??_?C??_?W_?C??_?C?CA??O?A??O?SC??_?C??_?wC??_?C??_C_A??O?A??OAS?_?C??_?C?f?C??_?C??_c_?O?A??O?AAQ_?_?C??_?CCf??_?C??_?Ccc??O?A??O?AQQ_?C??_?C??ccw'
p766
sS'C05C05K2'
p767
S'qrh\\QmiT[?G@GAC@`@OGJ?ag@DW@TO?im?G?O@?H?C@A?GBA?GI@?CD_O@DOA?Gj?G?ig?O@T[?O@?A?G?_C_A?GAC?O@?WO@?CD?_A?GJ?_A?Gi?O@?CT_C?O@TO?_A?Ij_A?G?_@?C?O@?H?C?O@?O_A?G?_KG?_A?GI@?C?O@@WC?O@?CT?G?_A?Gj?G?_A?Ii?C?O@?DT_'
p768
sS'C94Pow16'
p769
S'~?@]~~~~~~~~~~~~~~~~~~~~~~|~~x~~w~~{N~~@~~wF~~_N~~?N~~?F~~_@~~w?N~~??~~{?@~~w?@~~w??~~{??N~~??@~~w??F~~_??N~~???N~~???F~~_??@~~w???N~~????~~{???@~~w???@~~w????~~{????N~~????@~~w????F~~_????N~~?????N~~?????F~~_????@~~w?????N~~??????~~{?????@~~w?????@~~w??????~~{??????N~~??????@~~w??????F~~_??????N~~???????N~~???????F~~_??????@~~w???????N~~????????~~{???????@~~w???????@~~w????????~~{????????N~~????????@~~w????????F~~_????????N~~?????????N~~?????????F~~_????????@~~w?????????N~~??????????~~{?????????@~~{?????????@~~}??????????~~~_?????????N~~{?????????@~~~o?????????F~~~_?????????N~~~_?????????N~~~o?????????F~~~{?????????@~~~~_?????????N~~~}??????????~~~~{?????????@~~~~{?????????@~~~~}??????????~~~~~_?????????N~~~~{?????????@~~w'
p770
sS'C11Pow04'
p771
S'J~|x{~Nx~f_'
p772
sS'K03K16'
p773
S'o~~~~~~~~~~~~~~~~~~~~_?@??H??W_?[G?N@?BwC?^_G@~?GB~?CB~_@@~w?G^~??b~{?@N~w?@^~w??~~}??G??O?@??H??C?@a??G?FA??G?N@??C?N_O?@?FwA??G@~?G??_N{?O?@?~w?O?@@~w?G??`~{?A??G~~??O?@N~w?@??D~~_?A??N~~'
p774
sS'K03K17'
p775
S'r~~~~~~~~~~~~~~~~~~~~~~}??A??H??KO?FA?@wG?N_O?~?O@~?G@~_A?~w?ON~?@@~{?AF~w?AN~w?@N~{??V~~??B~~{??G??G??O?@G??O?BC??G?B`??A?@wG??O?^?_?@?B{@??A?Nw@??A?^w?_?@?^{?G??ON~?@??AB~w?C??G^~_?G??P~~??G??R~~??C??J~~_?@??B~~w'
p776
sS'K03K14'
p777
S'i~~~~~~~~~~~~~~~o?A?@G?KO?wO@wG@{A?~?ONw@@~_AF~?AN~?@N~_?V~w?B~~_?G?@??O?H??O?W_?G?[G?A?N@??OBwC?@?^_G?A@~?G?AB~?C?@B~_@??P~w?G?A^~??_?J~{?@??^~w'
p778
sS'K03K15'
p779
S'l~~~~~~~~~~~~~~~~~{??O?C_?W_?wO?{C?^?_FwA?~_CB~?CF~?AF~_?b~w?C~~??V~{??~~{??_?A??O?C_?C?BC??_?wO?A?F__?C?^?_?C?~?O?A?~_C??_^w?_?CF~?A??O~{?C??b~w?C??f~w?A??V~{??_?F~~'
p780
sS'K03K12'
p781
S'c~~~~~~~~~~~_?O?c?W_FA?{CBwCFwAF{?b~?C~w?V~_?~~_?_?O?O?c?C?W_?_FA?A?{C?CBwC?CFwA?AF{?_?b~?C?C~w?O?V~_?_?~~'
p782
sS'K03K13'
p783
S'f~~~~~~~~~~~~~_?G?H?BC?[G@wGBwCB{@@~?G^w?b~_@N~?@^~??~~o?G?A?@?@G?C?KO?G?wO?G@wG?C@{A?@?~?O?GNw@??`~_A?@F~?A?@N~?@??n~_?O?N~w'
p784
sS'K03K10'
p785
S']~~~~~~~{?G@GBCB`@wG^?b{@Nw@^w?~}?G?O@?H?C@a?GFA?GN@?CN_O@FwA?H~?G?n{?O@~w'
p786
sS'K03K11'
p787
S'`~~~~~~~~~o?O@G@a?wON@@{AFwANw@N{?V~?B~{?G?G?O@G?OBC?GB`?A@wG?O^?_@B{@?ANw@?A^w?_@^{?G?^~'
p788
sS'K03K18'
p789
S'u~~~~~~~~~~~~~~~~~~~~~~~~~{??A??C_?BC??wO?F__?^?_?~?O?~_C?^w?_F~?A?~{?CB~w?CF~w?AF~{??b~~??C~~w??V~~_??~~~_??_??O??O??c??C??W_??_?FA??A??{C??C?BwC??C?FwA??A?F{?_??_B~?C??C?~w?O??OF~_?_??_^~??_??_~~??O??O~~_?C??C^~w??_??f~~??A??A~~{??C??F~~w'
p790
sS'K03K19'
p791
S'x~~~~~~~~~~~~~~~~~~~~~~~~~~~~{??@??@G??W_?B`??N@??^?_?^_G?Nw@?B~?C?^{?G@~w?GB~w?CB~{?@@~~??G^~w??b~~_?@N~~??@^~~???~~~o??G??A??@??@G??C??KO??G??wO??G?@wG??C?@{A??@??~?O??G?Nw@???_@~_A??@?F~?A??@?N~?@???_N~_?O??GF~w?A??@@~~??G??CN~{??O??G~~w??O??H~~w??G??D~~{??A??@~~~'
p792
sS'C36Pow08'
p793
S'c~~~~~~^x~b~B~@~_^wB~?N{?^w?^w?N{?B~??^w?@~_?B~??B~??@~_??^w??B~_??N~???^~???^~_??N~w??B~~???^~{??@~~w??B~'
p794
sS'K04K20'
p795
S'~?@O~~~~~~~~~~~~~~~~~~~~~~~~~~~~~~~}???O??H??@a??FA??N@??N_O?FwA?@~?G?N{?O?~w?O@~w?G@~{?A?~~??ON~w?@@~~_?AF~~??AN~~??@N~~_??V~~w??B~~~_??G??@???O??H???O??W_??G??[G??A??N@???O?BwC??@??^_G??A?@~?G??A?B~?C??@?B~_@???O@~w?G??A?^~??_??GB~{?@???ON~w?@???O^~w??_??G^~{??G??AN~~??@???R~~w??C??@^~~_??G??B~~~_??G??A???O??C??@???c??@???O??W_??G??A??FA???_??G??{C??@???O?BwC??@???O?FwA???_??G?F{?_??G??A?B~?C??@???O?~w?O??C??@?F~_?_??G??A?^~??_??G??A?~~??O??C??@?~~_?C??@???O^~w??_??G??AF~~??A???_??G~~{??C??@???R~~w??C??@???V~~w??A???_??N~~{'
p796
sS'C05'
p797
S'IheA@GUAo'
p798
sS'C96Pow16'
p799
S'~?@_~~~~~~~~~~~~~~~~~~~~~~|~~x~~w~~{N~~@~~wF~~_N~~?N~~?F~~_@~~w?N~~??~~{?@~~w?@~~w??~~{??N~~??@~~w??F~~_??N~~???N~~???F~~_??@~~w???N~~????~~{???@~~w???@~~w????~~{????N~~????@~~w????F~~_????N~~?????N~~?????F~~_????@~~w?????N~~??????~~{?????@~~w?????@~~w??????~~{??????N~~??????@~~w??????F~~_??????N~~???????N~~???????F~~_??????@~~w???????N~~????????~~{???????@~~w???????@~~w????????~~{????????N~~????????@~~w????????F~~_????????N~~?????????N~~?????????F~~_????????@~~w?????????N~~??????????~~{?????????@~~w?????????@~~w??????????~~}??????????N~~o?????????@~~~??????????F~~}??????????N~~}??????????N~~~??????????F~~~o?????????@~~~}??????????N~~~w??????????~~~~o?????????@~~~~o?????????@~~~~w??????????~~~~}??????????N~~~~o?????????@~~~~~??????????F~~~~}??????????N~~'
p800
sS'C53Pow08'
p801
S't~~~~~~^x~b~B~@~_^wB~?N{?^w?^w?N{?B~??^w?@~_?B~??B~??@~_??^w??B~???N{???^w???^w???N{???B~????^w???@~_???B~????B~????@~_????^w????B~?????N{?????^w?????^w?????N{?????B~_?????^}?????@~{?????B~{?????B~}?????@~~_?????^~{?????B~~o?????N{'
p802
sS'C20Pow04'
p803
S'S~|xw{N@wF_N?N?F_@w?N_?~?@~?@~_?{'
p804
s.